
/home/luisky/PCMSIM_STAGE/pcmsim-fork/pcmsim.ko:     file format elf32-littlearm


Disassembly of section .text:

00000000 <pcmsim_probe>:
       0:	e92d41f0 	push	{r4, r5, r6, r7, r8, lr}
       4:	e1a04000 	mov	r4, r0
       8:	e59f60b8 	ldr	r6, [pc, #184]	; c8 <pcmsim_probe+0xc8>
       c:	e1a07001 	mov	r7, r1
      10:	e1a05006 	mov	r5, r6
      14:	e1a00006 	mov	r0, r6
      18:	e3a01000 	mov	r1, #0
      1c:	ebfffffe 	bl	0 <mutex_lock_nested>
      20:	e5b53044 	ldr	r3, [r5, #68]!	; 0x44
      24:	e7f30054 	ubfx	r0, r4, #0, #20
      28:	e1530005 	cmp	r3, r5
      2c:	0a00000b 	beq	60 <pcmsim_probe+0x60>
      30:	e2434034 	sub	r4, r3, #52	; 0x34
      34:	e5133034 	ldr	r3, [r3, #-52]	; 0xffffffcc
      38:	e1500003 	cmp	r0, r3
      3c:	1a000003 	bne	50 <pcmsim_probe+0x50>
      40:	ea00001c 	b	b8 <pcmsim_probe+0xb8>
      44:	e5133034 	ldr	r3, [r3, #-52]	; 0xffffffcc
      48:	e1500003 	cmp	r0, r3
      4c:	0a000019 	beq	b8 <pcmsim_probe+0xb8>
      50:	e5943034 	ldr	r3, [r4, #52]	; 0x34
      54:	e1530005 	cmp	r3, r5
      58:	e2434034 	sub	r4, r3, #52	; 0x34
      5c:	1afffff8 	bne	44 <pcmsim_probe+0x44>
      60:	e596104c 	ldr	r1, [r6, #76]	; 0x4c
      64:	ebfffffe 	bl	27c8 <pcmsim_alloc>
      68:	e2504000 	subs	r4, r0, #0
      6c:	0a000013 	beq	c0 <pcmsim_probe+0xc0>
      70:	e5941030 	ldr	r1, [r4, #48]	; 0x30
      74:	e3a00000 	mov	r0, #0
      78:	ebfffffe 	bl	0 <device_add_disk>
      7c:	e5962048 	ldr	r2, [r6, #72]	; 0x48
      80:	e2843034 	add	r3, r4, #52	; 0x34
      84:	e5845034 	str	r5, [r4, #52]	; 0x34
      88:	e5842038 	str	r2, [r4, #56]	; 0x38
      8c:	e5863048 	str	r3, [r6, #72]	; 0x48
      90:	e5823000 	str	r3, [r2]
      94:	e5940030 	ldr	r0, [r4, #48]	; 0x30
      98:	ebfffffe 	bl	0 <get_disk_and_module>
      9c:	e1a04000 	mov	r4, r0
      a0:	e59f0020 	ldr	r0, [pc, #32]	; c8 <pcmsim_probe+0xc8>
      a4:	ebfffffe 	bl	0 <mutex_unlock>
      a8:	e3a03000 	mov	r3, #0
      ac:	e1a00004 	mov	r0, r4
      b0:	e5873000 	str	r3, [r7]
      b4:	e8bd81f0 	pop	{r4, r5, r6, r7, r8, pc}
      b8:	e3540000 	cmp	r4, #0
      bc:	1afffff4 	bne	94 <pcmsim_probe+0x94>
      c0:	e3e0400b 	mvn	r4, #11
      c4:	eafffff5 	b	a0 <pcmsim_probe+0xa0>
      c8:	00000000 	andeq	r0, r0, r0

000000cc <memory_time_read.constprop.0>:
      cc:	e92d4070 	push	{r4, r5, r6, lr}
      d0:	e24dd048 	sub	sp, sp, #72	; 0x48
      d4:	e59f4068 	ldr	r4, [pc, #104]	; 144 <fin+0x28>
      d8:	e28d5004 	add	r5, sp, #4
      dc:	e3a02040 	mov	r2, #64	; 0x40
      e0:	e5943000 	ldr	r3, [r4]
      e4:	e1a00005 	mov	r0, r5
      e8:	e3a01000 	mov	r1, #0
      ec:	e58d3044 	str	r3, [sp, #68]	; 0x44
      f0:	ebfffffe 	bl	0 <memset>
      f4:	ebfffffe 	bl	23d0 <get_ticks>
      f8:	e1a06000 	mov	r6, r0
      fc:	e3a00000 	mov	r0, #0
     100:	e1a01005 	mov	r1, r5

00000104 <boucle>:
     104:	e3500040 	cmp	r0, #64	; 0x40
     108:	0a000003 	beq	11c <fin>
     10c:	e2800001 	add	r0, r0, #1
     110:	e1d120d0 	ldrsb	r2, [r1]
     114:	e2811001 	add	r1, r1, #1
     118:	eafffff9 	b	104 <boucle>

0000011c <fin>:
     11c:	ebfffffe 	bl	23d0 <get_ticks>
     120:	f57ff06f 	isb	sy
     124:	e59d2044 	ldr	r2, [sp, #68]	; 0x44
     128:	e5943000 	ldr	r3, [r4]
     12c:	e0400006 	sub	r0, r0, r6
     130:	e1520003 	cmp	r2, r3
     134:	1a000001 	bne	140 <fin+0x24>
     138:	e28dd048 	add	sp, sp, #72	; 0x48
     13c:	e8bd8070 	pop	{r4, r5, r6, pc}
     140:	ebfffffe 	bl	0 <__stack_chk_fail>
     144:	00000000 	andeq	r0, r0, r0

00000148 <memory_read>:
     148:	e1a00000 	nop			; (mov r0, r0)
     14c:	e1a01001 	mov	r1, r1
     150:	e3a02000 	mov	r2, #0

00000154 <boucle_lec>:
     154:	e1520001 	cmp	r2, r1
     158:	0a000003 	beq	16c <end_lec>
     15c:	e1d030d0 	ldrsb	r3, [r0]
     160:	e2800001 	add	r0, r0, #1
     164:	e2822001 	add	r2, r2, #1
     168:	eafffff9 	b	154 <boucle_lec>

0000016c <end_lec>:
     16c:	f57ff06f 	isb	sy
     170:	e12fff1e 	bx	lr

00000174 <memory_copy>:
     174:	e1a00000 	nop			; (mov r0, r0)
     178:	e1a01001 	mov	r1, r1
     17c:	e1a02002 	mov	r2, r2
     180:	e3a04000 	mov	r4, #0

00000184 <boucle_cop>:
     184:	e1540000 	cmp	r4, r0
     188:	0a000005 	beq	1a4 <end_cop>
     18c:	e5d13000 	ldrb	r3, [r1]
     190:	e5c03000 	strb	r3, [r0]
     194:	e2800001 	add	r0, r0, #1
     198:	e2811001 	add	r1, r1, #1
     19c:	e2844001 	add	r4, r4, #1
     1a0:	eafffff7 	b	184 <boucle_cop>

000001a4 <end_cop>:
     1a4:	f57ff06f 	isb	sy
     1a8:	e12fff1e 	bx	lr

000001ac <variance>:
     1ac:	e3530000 	cmp	r3, #0
     1b0:	e92d41f0 	push	{r4, r5, r6, r7, r8, lr}
     1b4:	e1a07002 	mov	r7, r2
     1b8:	0a000016 	beq	218 <variance+0x6c>
     1bc:	e2404004 	sub	r4, r0, #4
     1c0:	e0846103 	add	r6, r4, r3, lsl #2
     1c4:	e1a05001 	mov	r5, r1
     1c8:	e1a03004 	mov	r3, r4
     1cc:	e3a00000 	mov	r0, #0
     1d0:	e5b3c004 	ldr	ip, [r3, #4]!
     1d4:	e2811004 	add	r1, r1, #4
     1d8:	e35c0000 	cmp	ip, #0
     1dc:	15112004 	ldrne	r2, [r1, #-4]
     1e0:	10800002 	addne	r0, r0, r2
     1e4:	e1530006 	cmp	r3, r6
     1e8:	1afffff8 	bne	1d0 <variance+0x24>
     1ec:	e1a01007 	mov	r1, r7
     1f0:	ebfffffe 	bl	0 <__aeabi_uidiv>
     1f4:	e3a03000 	mov	r3, #0
     1f8:	e5b41004 	ldr	r1, [r4, #4]!
     1fc:	e2855004 	add	r5, r5, #4
     200:	e3510000 	cmp	r1, #0
     204:	1515c004 	ldrne	ip, [r5, #-4]
     208:	104cc000 	subne	ip, ip, r0
     20c:	10233c9c 	mlane	r3, ip, ip, r3
     210:	e1540006 	cmp	r4, r6
     214:	1afffff7 	bne	1f8 <variance+0x4c>
     218:	e3570001 	cmp	r7, #1
     21c:	0a000003 	beq	230 <variance+0x84>
     220:	e2471001 	sub	r1, r7, #1
     224:	e1a00003 	mov	r0, r3
     228:	ebfffffe 	bl	0 <__aeabi_uidiv>
     22c:	e8bd81f0 	pop	{r4, r5, r6, r7, r8, pc}
     230:	e59f0004 	ldr	r0, [pc, #4]	; 23c <variance+0x90>
     234:	ebfffffe 	bl	0 <printk>
     238:	e7f001f2 	udf	#18
     23c:	0000005c 	andeq	r0, r0, ip, asr r0

00000240 <hw95>:
     240:	e241305a 	sub	r3, r1, #90	; 0x5a
     244:	e353000a 	cmp	r3, #10
     248:	e92d4070 	push	{r4, r5, r6, lr}
     24c:	e1a04001 	mov	r4, r1
     250:	e1a05000 	mov	r5, r0
     254:	8a000009 	bhi	280 <hw95+0x40>
     258:	e1a01004 	mov	r1, r4
     25c:	e1a00005 	mov	r0, r5
     260:	ebfffffe 	bl	0 <__aeabi_uidiv>
     264:	ebfffffe 	bl	2438 <sqrt32>
     268:	e59f2020 	ldr	r2, [pc, #32]	; 290 <hw95+0x50>
     26c:	e0603280 	rsb	r3, r0, r0, lsl #5
     270:	e0800303 	add	r0, r0, r3, lsl #6
     274:	e0803092 	umull	r3, r0, r2, r0
     278:	e1a00320 	lsr	r0, r0, #6
     27c:	e8bd8070 	pop	{r4, r5, r6, pc}
     280:	e3001255 	movw	r1, #597	; 0x255
     284:	e59f0008 	ldr	r0, [pc, #8]	; 294 <hw95+0x54>
     288:	ebfffffe 	bl	0 <warn_slowpath_null>
     28c:	eafffff1 	b	258 <hw95+0x18>
     290:	10624dd3 	ldrdne	r4, [r2], #-211	; 0xffffff2d	; <UNPREDICTABLE>
     294:	00000068 	andeq	r0, r0, r8, rrx

00000298 <hw95pi>:
     298:	e241305a 	sub	r3, r1, #90	; 0x5a
     29c:	e353000a 	cmp	r3, #10
     2a0:	e92d4070 	push	{r4, r5, r6, lr}
     2a4:	e1a05001 	mov	r5, r1
     2a8:	e1a04000 	mov	r4, r0
     2ac:	8a00000a 	bhi	2dc <hw95pi+0x44>
     2b0:	e1a01005 	mov	r1, r5
     2b4:	e1a00004 	mov	r0, r4
     2b8:	ebfffffe 	bl	0 <__aeabi_uidiv>
     2bc:	e0800004 	add	r0, r0, r4
     2c0:	ebfffffe 	bl	2438 <sqrt32>
     2c4:	e59f2020 	ldr	r2, [pc, #32]	; 2ec <hw95pi+0x54>
     2c8:	e0603280 	rsb	r3, r0, r0, lsl #5
     2cc:	e0800303 	add	r0, r0, r3, lsl #6
     2d0:	e0803092 	umull	r3, r0, r2, r0
     2d4:	e1a00320 	lsr	r0, r0, #6
     2d8:	e8bd8070 	pop	{r4, r5, r6, pc}
     2dc:	e3a01f99 	mov	r1, #612	; 0x264
     2e0:	e59f0008 	ldr	r0, [pc, #8]	; 2f0 <hw95pi+0x58>
     2e4:	ebfffffe 	bl	0 <warn_slowpath_null>
     2e8:	eafffff0 	b	2b0 <hw95pi+0x18>
     2ec:	10624dd3 	ldrdne	r4, [r2], #-211	; 0xffffff2d	; <UNPREDICTABLE>
     2f0:	00000068 	andeq	r0, r0, r8, rrx

000002f4 <memory_calibrate>:
     2f4:	e92d4ff0 	push	{r4, r5, r6, r7, r8, r9, sl, fp, lr}
     2f8:	e24dd0ac 	sub	sp, sp, #172	; 0xac
     2fc:	e59f9c64 	ldr	r9, [pc, #3172]	; f68 <memory_calibrate+0xc74>
     300:	e3a00802 	mov	r0, #131072	; 0x20000
     304:	e5993000 	ldr	r3, [r9]
     308:	e58d30a4 	str	r3, [sp, #164]	; 0xa4
     30c:	ebfffffe 	bl	0 <vmalloc>
     310:	e250a000 	subs	sl, r0, #0
     314:	0a000003 	beq	328 <memory_calibrate+0x34>
     318:	e3a00401 	mov	r0, #16777216	; 0x1000000
     31c:	ebfffffe 	bl	0 <vmalloc>
     320:	e2508000 	subs	r8, r0, #0
     324:	1a000000 	bne	32c <memory_calibrate+0x38>
     328:	e7f001f2 	udf	#18
     32c:	e3a00802 	mov	r0, #131072	; 0x20000
     330:	ebfffffe 	bl	0 <vmalloc>
     334:	e59f6c80 	ldr	r6, [pc, #3200]	; fbc <memory_calibrate+0xcc8>
     338:	e3a0500a 	mov	r5, #10
     33c:	e1a03000 	mov	r3, r0
     340:	e58d3078 	str	r3, [sp, #120]	; 0x78
     344:	e2933000 	adds	r3, r3, #0
     348:	13a03001 	movne	r3, #1
     34c:	e3a00802 	mov	r0, #131072	; 0x20000
     350:	e1a04003 	mov	r4, r3
     354:	e58d301c 	str	r3, [sp, #28]
     358:	ebfffffe 	bl	0 <vmalloc>
     35c:	e59f2c44 	ldr	r2, [pc, #3140]	; fa8 <memory_calibrate+0xcb4>
     360:	e3a01ffa 	mov	r1, #1000	; 0x3e8
     364:	e3500000 	cmp	r0, #0
     368:	11a03004 	movne	r3, r4
     36c:	12833001 	addne	r3, r3, #1
     370:	158d301c 	strne	r3, [sp, #28]
     374:	e5923000 	ldr	r3, [r2]
     378:	e58d007c 	str	r0, [sp, #124]	; 0x7c
     37c:	e5920004 	ldr	r0, [r2, #4]
     380:	e1a030a3 	lsr	r3, r3, #1
     384:	e5863000 	str	r3, [r6]
     388:	e0010391 	mul	r1, r1, r3
     38c:	e0000095 	mul	r0, r5, r0
     390:	ebfffffe 	bl	0 <__aeabi_uidiv>
     394:	e1a01005 	mov	r1, r5
     398:	e1a04000 	mov	r4, r0
     39c:	ebfffffe 	bl	0 <__aeabi_uidivmod>
     3a0:	e3510005 	cmp	r1, #5
     3a4:	95864004 	strls	r4, [r6, #4]
     3a8:	8a000060 	bhi	530 <memory_calibrate+0x23c>
     3ac:	e59f1c08 	ldr	r1, [pc, #3080]	; fbc <memory_calibrate+0xcc8>
     3b0:	e59f3bb4 	ldr	r3, [pc, #2996]	; f6c <memory_calibrate+0xc78>
     3b4:	e59f0bb4 	ldr	r0, [pc, #2996]	; f70 <memory_calibrate+0xc7c>
     3b8:	e5912004 	ldr	r2, [r1, #4]
     3bc:	e3a04000 	mov	r4, #0
     3c0:	e1a0b004 	mov	fp, r4
     3c4:	e0832392 	umull	r2, r3, r2, r3
     3c8:	e1a031a3 	lsr	r3, r3, #3
     3cc:	e5813004 	str	r3, [r1, #4]
     3d0:	ebfffffe 	bl	0 <printk>
     3d4:	e28d5078 	add	r5, sp, #120	; 0x78
     3d8:	e58d402c 	str	r4, [sp, #44]	; 0x2c
     3dc:	e4953004 	ldr	r3, [r5], #4
     3e0:	e3530000 	cmp	r3, #0
     3e4:	0a00000c 	beq	41c <memory_calibrate+0x128>
     3e8:	e3a00000 	mov	r0, #0
     3ec:	ee070f5e 	mcr	15, 0, r0, cr7, cr14, {2}
     3f0:	e5157004 	ldr	r7, [r5, #-4]
     3f4:	ebffff34 	bl	cc <memory_time_read.constprop.0>
     3f8:	e1a06000 	mov	r6, r0
     3fc:	ebffff32 	bl	cc <memory_time_read.constprop.0>
     400:	e3500efa 	cmp	r0, #4000	; 0xfa0
     404:	93560efa 	cmpls	r6, #4000	; 0xfa0
     408:	8a00004c 	bhi	540 <memory_calibrate+0x24c>
     40c:	e59d302c 	ldr	r3, [sp, #44]	; 0x2c
     410:	e08bb006 	add	fp, fp, r6
     414:	e0833000 	add	r3, r3, r0
     418:	e58d302c 	str	r3, [sp, #44]	; 0x2c
     41c:	e28d3080 	add	r3, sp, #128	; 0x80
     420:	e1530005 	cmp	r3, r5
     424:	1affffec 	bne	3dc <memory_calibrate+0xe8>
     428:	e59d301c 	ldr	r3, [sp, #28]
     42c:	e58db038 	str	fp, [sp, #56]	; 0x38
     430:	e3530000 	cmp	r3, #0
     434:	0a000048 	beq	55c <memory_calibrate+0x268>
     438:	e59d5038 	ldr	r5, [sp, #56]	; 0x38
     43c:	e59d401c 	ldr	r4, [sp, #28]
     440:	e1a02005 	mov	r2, r5
     444:	e1a01004 	mov	r1, r4
     448:	e59f0b24 	ldr	r0, [pc, #2852]	; f74 <memory_calibrate+0xc80>
     44c:	ebfffffe 	bl	0 <printk>
     450:	e59d202c 	ldr	r2, [sp, #44]	; 0x2c
     454:	e0823104 	add	r3, r2, r4, lsl #2
     458:	e1530005 	cmp	r3, r5
     45c:	3a000004 	bcc	474 <memory_calibrate+0x180>
     460:	e59f0b10 	ldr	r0, [pc, #2832]	; f78 <memory_calibrate+0xc84>
     464:	ebfffffe 	bl	0 <printk>
     468:	e59d3038 	ldr	r3, [sp, #56]	; 0x38
     46c:	e1a030a3 	lsr	r3, r3, #1
     470:	e58d302c 	str	r3, [sp, #44]	; 0x2c
     474:	e59d302c 	ldr	r3, [sp, #44]	; 0x2c
     478:	e59d2038 	ldr	r2, [sp, #56]	; 0x38
     47c:	e59d101c 	ldr	r1, [sp, #28]
     480:	e0420003 	sub	r0, r2, r3
     484:	e59f6af0 	ldr	r6, [pc, #2800]	; f7c <memory_calibrate+0xc88>
     488:	e0830120 	add	r0, r3, r0, lsr #2
     48c:	ebfffffe 	bl	0 <__aeabi_uidiv>
     490:	e3a0b001 	mov	fp, #1
     494:	e5060004 	str	r0, [r6, #-4]
     498:	e58d8020 	str	r8, [sp, #32]
     49c:	e3a05000 	mov	r5, #0
     4a0:	e1a07005 	mov	r7, r5
     4a4:	e28d8078 	add	r8, sp, #120	; 0x78
     4a8:	e1a04005 	mov	r4, r5
     4ac:	e4983004 	ldr	r3, [r8], #4
     4b0:	e3530000 	cmp	r3, #0
     4b4:	0a000019 	beq	520 <memory_calibrate+0x22c>
     4b8:	e3a00000 	mov	r0, #0
     4bc:	ee070f5e 	mcr	15, 0, r0, cr7, cr14, {2}
     4c0:	ebfffffe 	bl	23d0 <get_ticks>
     4c4:	e58d0024 	str	r0, [sp, #36]	; 0x24
     4c8:	ebfffeff 	bl	cc <memory_time_read.constprop.0>
     4cc:	ebfffffe 	bl	23d0 <get_ticks>
     4d0:	e59d3024 	ldr	r3, [sp, #36]	; 0x24
     4d4:	e0403003 	sub	r3, r0, r3
     4d8:	e58d3028 	str	r3, [sp, #40]	; 0x28
     4dc:	ebfffffe 	bl	23d0 <get_ticks>
     4e0:	e58d0024 	str	r0, [sp, #36]	; 0x24
     4e4:	ebfffef8 	bl	cc <memory_time_read.constprop.0>
     4e8:	ebfffffe 	bl	23d0 <get_ticks>
     4ec:	e59f3aec 	ldr	r3, [pc, #2796]	; fe0 <memory_calibrate+0xcec>
     4f0:	e5931000 	ldr	r1, [r3]
     4f4:	e59d2024 	ldr	r2, [sp, #36]	; 0x24
     4f8:	e59d3028 	ldr	r3, [sp, #40]	; 0x28
     4fc:	e0402002 	sub	r2, r0, r2
     500:	e1510003 	cmp	r1, r3
     504:	30433001 	subcc	r3, r3, r1
     508:	23a03000 	movcs	r3, #0
     50c:	e1510002 	cmp	r1, r2
     510:	30422001 	subcc	r2, r2, r1
     514:	23a02000 	movcs	r2, #0
     518:	e0844003 	add	r4, r4, r3
     51c:	e0877002 	add	r7, r7, r2
     520:	e3550001 	cmp	r5, #1
     524:	0a000012 	beq	574 <memory_calibrate+0x280>
     528:	e3a05001 	mov	r5, #1
     52c:	eaffffde 	b	4ac <memory_calibrate+0x1b8>
     530:	e59f3a84 	ldr	r3, [pc, #2692]	; fbc <memory_calibrate+0xcc8>
     534:	e284400a 	add	r4, r4, #10
     538:	e5834004 	str	r4, [r3, #4]
     53c:	eaffff9a 	b	3ac <memory_calibrate+0xb8>
     540:	e1a00007 	mov	r0, r7
     544:	ebfffffe 	bl	0 <vfree>
     548:	e5054004 	str	r4, [r5, #-4]
     54c:	e59d301c 	ldr	r3, [sp, #28]
     550:	e2433001 	sub	r3, r3, #1
     554:	e58d301c 	str	r3, [sp, #28]
     558:	eaffffaf 	b	41c <memory_calibrate+0x128>
     55c:	e30012cd 	movw	r1, #717	; 0x2cd
     560:	e59f0a18 	ldr	r0, [pc, #2584]	; f80 <memory_calibrate+0xc8c>
     564:	ebfffffe 	bl	0 <warn_slowpath_null>
     568:	e3a03001 	mov	r3, #1
     56c:	e58d301c 	str	r3, [sp, #28]
     570:	eaffffb0 	b	438 <memory_calibrate+0x144>
     574:	e1a00004 	mov	r0, r4
     578:	e59d401c 	ldr	r4, [sp, #28]
     57c:	e28bb001 	add	fp, fp, #1
     580:	e1a01004 	mov	r1, r4
     584:	ebfffffe 	bl	0 <__aeabi_uidiv>
     588:	e1a01004 	mov	r1, r4
     58c:	e2866004 	add	r6, r6, #4
     590:	e5860000 	str	r0, [r6]
     594:	e1a00007 	mov	r0, r7
     598:	ebfffffe 	bl	0 <__aeabi_uidiv>
     59c:	e35b0009 	cmp	fp, #9
     5a0:	e5860024 	str	r0, [r6, #36]	; 0x24
     5a4:	1affffbc 	bne	49c <memory_calibrate+0x1a8>
     5a8:	e59d8020 	ldr	r8, [sp, #32]
     5ac:	e58da024 	str	sl, [sp, #36]	; 0x24
     5b0:	e58db020 	str	fp, [sp, #32]
     5b4:	e58d8028 	str	r8, [sp, #40]	; 0x28
     5b8:	e59f59c4 	ldr	r5, [pc, #2500]	; f84 <memory_calibrate+0xc90>
     5bc:	e3a06c02 	mov	r6, #512	; 0x200
     5c0:	e1a0a005 	mov	sl, r5
     5c4:	e3a07000 	mov	r7, #0
     5c8:	e1a0b007 	mov	fp, r7
     5cc:	e28d4078 	add	r4, sp, #120	; 0x78
     5d0:	e4943004 	ldr	r3, [r4], #4
     5d4:	e3530000 	cmp	r3, #0
     5d8:	0a00001c 	beq	650 <memory_calibrate+0x35c>
     5dc:	e3a00000 	mov	r0, #0
     5e0:	ee070f5e 	mcr	15, 0, r0, cr7, cr14, {2}
     5e4:	f57ff06f 	isb	sy
     5e8:	ebfffffe 	bl	23d0 <get_ticks>
     5ec:	e1a01006 	mov	r1, r6
     5f0:	e1a08000 	mov	r8, r0
     5f4:	e5140004 	ldr	r0, [r4, #-4]
     5f8:	ebfffffe 	bl	148 <memory_read>
     5fc:	ebfffffe 	bl	23d0 <get_ticks>
     600:	e0408008 	sub	r8, r0, r8
     604:	f57ff06f 	isb	sy
     608:	ebfffffe 	bl	23d0 <get_ticks>
     60c:	e1a01006 	mov	r1, r6
     610:	e58d0030 	str	r0, [sp, #48]	; 0x30
     614:	e5140004 	ldr	r0, [r4, #-4]
     618:	ebfffffe 	bl	148 <memory_read>
     61c:	ebfffffe 	bl	23d0 <get_ticks>
     620:	e59f39b8 	ldr	r3, [pc, #2488]	; fe0 <memory_calibrate+0xcec>
     624:	e5931000 	ldr	r1, [r3]
     628:	e1510008 	cmp	r1, r8
     62c:	30488001 	subcc	r8, r8, r1
     630:	23a08000 	movcs	r8, #0
     634:	e0877008 	add	r7, r7, r8
     638:	e59d2030 	ldr	r2, [sp, #48]	; 0x30
     63c:	e0403002 	sub	r3, r0, r2
     640:	e1510003 	cmp	r1, r3
     644:	30433001 	subcc	r3, r3, r1
     648:	23a03000 	movcs	r3, #0
     64c:	e08bb003 	add	fp, fp, r3
     650:	e28d3080 	add	r3, sp, #128	; 0x80
     654:	e1530004 	cmp	r3, r4
     658:	1affffdc 	bne	5d0 <memory_calibrate+0x2dc>
     65c:	e59d401c 	ldr	r4, [sp, #28]
     660:	e1a00007 	mov	r0, r7
     664:	e1a01004 	mov	r1, r4
     668:	ebfffffe 	bl	0 <__aeabi_uidiv>
     66c:	e1a01004 	mov	r1, r4
     670:	e2866c02 	add	r6, r6, #512	; 0x200
     674:	e28aa004 	add	sl, sl, #4
     678:	e58a0000 	str	r0, [sl]
     67c:	e1a0000b 	mov	r0, fp
     680:	ebfffffe 	bl	0 <__aeabi_uidiv>
     684:	e3560c12 	cmp	r6, #4608	; 0x1200
     688:	e58a0024 	str	r0, [sl, #36]	; 0x24
     68c:	1affffcc 	bne	5c4 <memory_calibrate+0x2d0>
     690:	e3a02001 	mov	r2, #1
     694:	e1a03002 	mov	r3, r2
     698:	e5950004 	ldr	r0, [r5, #4]
     69c:	e5951028 	ldr	r1, [r5, #40]	; 0x28
     6a0:	e3500000 	cmp	r0, #0
     6a4:	03a03000 	moveq	r3, #0
     6a8:	e2822001 	add	r2, r2, #1
     6ac:	e3510000 	cmp	r1, #0
     6b0:	03a03000 	moveq	r3, #0
     6b4:	e3520009 	cmp	r2, #9
     6b8:	e2855004 	add	r5, r5, #4
     6bc:	1afffff5 	bne	698 <memory_calibrate+0x3a4>
     6c0:	e59f28c0 	ldr	r2, [pc, #2240]	; f88 <memory_calibrate+0xc94>
     6c4:	e3a01007 	mov	r1, #7
     6c8:	e58d206c 	str	r2, [sp, #108]	; 0x6c
     6cc:	e592c000 	ldr	ip, [r2]
     6d0:	e5b20004 	ldr	r0, [r2, #4]!
     6d4:	e15c0000 	cmp	ip, r0
     6d8:	e592c020 	ldr	ip, [r2, #32]
     6dc:	e5920024 	ldr	r0, [r2, #36]	; 0x24
     6e0:	23a03000 	movcs	r3, #0
     6e4:	e15c0000 	cmp	ip, r0
     6e8:	23a03000 	movcs	r3, #0
     6ec:	e2511001 	subs	r1, r1, #1
     6f0:	1afffff5 	bne	6cc <memory_calibrate+0x3d8>
     6f4:	e3530000 	cmp	r3, #0
     6f8:	1a000003 	bne	70c <memory_calibrate+0x418>
     6fc:	e59d3020 	ldr	r3, [sp, #32]
     700:	e2533001 	subs	r3, r3, #1
     704:	e58d3020 	str	r3, [sp, #32]
     708:	1affffaa 	bne	5b8 <memory_calibrate+0x2c4>
     70c:	e3a03009 	mov	r3, #9
     710:	e59da024 	ldr	sl, [sp, #36]	; 0x24
     714:	e59d8028 	ldr	r8, [sp, #40]	; 0x28
     718:	e58d3034 	str	r3, [sp, #52]	; 0x34
     71c:	e59f3874 	ldr	r3, [pc, #2164]	; f98 <memory_calibrate+0xca4>
     720:	e1a0b00a 	mov	fp, sl
     724:	e0883003 	add	r3, r8, r3
     728:	e58d3040 	str	r3, [sp, #64]	; 0x40
     72c:	e58d8030 	str	r8, [sp, #48]	; 0x30
     730:	e59f3854 	ldr	r3, [pc, #2132]	; f8c <memory_calibrate+0xc98>
     734:	e3a04c02 	mov	r4, #512	; 0x200
     738:	e2832048 	add	r2, r3, #72	; 0x48
     73c:	e58d2024 	str	r2, [sp, #36]	; 0x24
     740:	e2832094 	add	r2, r3, #148	; 0x94
     744:	e58d3060 	str	r3, [sp, #96]	; 0x60
     748:	e2435f5a 	sub	r5, r3, #360	; 0x168
     74c:	e58d2048 	str	r2, [sp, #72]	; 0x48
     750:	e58d303c 	str	r3, [sp, #60]	; 0x3c
     754:	e283206c 	add	r2, r3, #108	; 0x6c
     758:	e2433024 	sub	r3, r3, #36	; 0x24
     75c:	e58d2028 	str	r2, [sp, #40]	; 0x28
     760:	e58d3020 	str	r3, [sp, #32]
     764:	e3a08000 	mov	r8, #0
     768:	e1a0a008 	mov	sl, r8
     76c:	e28d7078 	add	r7, sp, #120	; 0x78
     770:	e58d504c 	str	r5, [sp, #76]	; 0x4c
     774:	e4972004 	ldr	r2, [r7], #4
     778:	e3520000 	cmp	r2, #0
     77c:	0a000024 	beq	814 <memory_calibrate+0x520>
     780:	e3a00000 	mov	r0, #0
     784:	ee070f5e 	mcr	15, 0, r0, cr7, cr14, {2}
     788:	f57ff06f 	isb	sy
     78c:	ebfffffe 	bl	23d0 <get_ticks>
     790:	e1a02004 	mov	r2, r4
     794:	e5171004 	ldr	r1, [r7, #-4]
     798:	e1a06000 	mov	r6, r0
     79c:	e1a0000b 	mov	r0, fp
     7a0:	ebfffffe 	bl	174 <memory_copy>
     7a4:	ebfffffe 	bl	23d0 <get_ticks>
     7a8:	e0406006 	sub	r6, r0, r6
     7ac:	e3a00000 	mov	r0, #0
     7b0:	ee070f5e 	mcr	15, 0, r0, cr7, cr14, {2}
     7b4:	f57ff06f 	isb	sy
     7b8:	e5175004 	ldr	r5, [r7, #-4]
     7bc:	e1a01004 	mov	r1, r4
     7c0:	e1a00005 	mov	r0, r5
     7c4:	ebfffffe 	bl	148 <memory_read>
     7c8:	ebfffffe 	bl	23d0 <get_ticks>
     7cc:	e1a02004 	mov	r2, r4
     7d0:	e1a01005 	mov	r1, r5
     7d4:	e58d0044 	str	r0, [sp, #68]	; 0x44
     7d8:	e1a0000b 	mov	r0, fp
     7dc:	ebfffffe 	bl	174 <memory_copy>
     7e0:	ebfffffe 	bl	23d0 <get_ticks>
     7e4:	e59f37f4 	ldr	r3, [pc, #2036]	; fe0 <memory_calibrate+0xcec>
     7e8:	e5931000 	ldr	r1, [r3]
     7ec:	e1510006 	cmp	r1, r6
     7f0:	30466001 	subcc	r6, r6, r1
     7f4:	23a06000 	movcs	r6, #0
     7f8:	e0888006 	add	r8, r8, r6
     7fc:	e59d3044 	ldr	r3, [sp, #68]	; 0x44
     800:	e0402003 	sub	r2, r0, r3
     804:	e1510002 	cmp	r1, r2
     808:	30422001 	subcc	r2, r2, r1
     80c:	23a02000 	movcs	r2, #0
     810:	e08aa002 	add	sl, sl, r2
     814:	e28d3080 	add	r3, sp, #128	; 0x80
     818:	e1530007 	cmp	r3, r7
     81c:	1affffd4 	bne	774 <memory_calibrate+0x480>
     820:	e59d601c 	ldr	r6, [sp, #28]
     824:	e1a00008 	mov	r0, r8
     828:	e1a01006 	mov	r1, r6
     82c:	e59d504c 	ldr	r5, [sp, #76]	; 0x4c
     830:	ebfffffe 	bl	0 <__aeabi_uidiv>
     834:	e3a08000 	mov	r8, #0
     838:	e1a01006 	mov	r1, r6
     83c:	e5850004 	str	r0, [r5, #4]
     840:	e1a0000a 	mov	r0, sl
     844:	e58d8044 	str	r8, [sp, #68]	; 0x44
     848:	e28d7078 	add	r7, sp, #120	; 0x78
     84c:	ebfffffe 	bl	0 <__aeabi_uidiv>
     850:	e5850070 	str	r0, [r5, #112]	; 0x70
     854:	e4973004 	ldr	r3, [r7], #4
     858:	e3530000 	cmp	r3, #0
     85c:	1a0000f2 	bne	c2c <memory_calibrate+0x938>
     860:	e28d3080 	add	r3, sp, #128	; 0x80
     864:	e1530007 	cmp	r3, r7
     868:	1afffff9 	bne	854 <memory_calibrate+0x560>
     86c:	e59d601c 	ldr	r6, [sp, #28]
     870:	e1a00008 	mov	r0, r8
     874:	e1a01006 	mov	r1, r6
     878:	ebfffffe 	bl	0 <__aeabi_uidiv>
     87c:	e1a01006 	mov	r1, r6
     880:	e3a0a000 	mov	sl, #0
     884:	e1a0800a 	mov	r8, sl
     888:	e585004c 	str	r0, [r5, #76]	; 0x4c
     88c:	e59d0044 	ldr	r0, [sp, #68]	; 0x44
     890:	e28d7078 	add	r7, sp, #120	; 0x78
     894:	ebfffffe 	bl	0 <__aeabi_uidiv>
     898:	e58500b8 	str	r0, [r5, #184]	; 0xb8
     89c:	e4973004 	ldr	r3, [r7], #4
     8a0:	e3530000 	cmp	r3, #0
     8a4:	0a000024 	beq	93c <memory_calibrate+0x648>
     8a8:	e3a00000 	mov	r0, #0
     8ac:	ee070f5e 	mcr	15, 0, r0, cr7, cr14, {2}
     8b0:	f57ff06f 	isb	sy
     8b4:	e1a01004 	mov	r1, r4
     8b8:	e1a0000b 	mov	r0, fp
     8bc:	ebfffffe 	bl	148 <memory_read>
     8c0:	ebfffffe 	bl	23d0 <get_ticks>
     8c4:	e1a02004 	mov	r2, r4
     8c8:	e5171004 	ldr	r1, [r7, #-4]
     8cc:	e1a06000 	mov	r6, r0
     8d0:	e1a0000b 	mov	r0, fp
     8d4:	ebfffffe 	bl	174 <memory_copy>
     8d8:	ebfffffe 	bl	23d0 <get_ticks>
     8dc:	e0406006 	sub	r6, r0, r6
     8e0:	f57ff06f 	isb	sy
     8e4:	e1a01004 	mov	r1, r4
     8e8:	e1a0000b 	mov	r0, fp
     8ec:	ebfffffe 	bl	148 <memory_read>
     8f0:	ebfffffe 	bl	23d0 <get_ticks>
     8f4:	e1a02004 	mov	r2, r4
     8f8:	e5171004 	ldr	r1, [r7, #-4]
     8fc:	e58d0044 	str	r0, [sp, #68]	; 0x44
     900:	e1a0000b 	mov	r0, fp
     904:	ebfffffe 	bl	174 <memory_copy>
     908:	ebfffffe 	bl	23d0 <get_ticks>
     90c:	e59f36cc 	ldr	r3, [pc, #1740]	; fe0 <memory_calibrate+0xcec>
     910:	e5932000 	ldr	r2, [r3]
     914:	e1520006 	cmp	r2, r6
     918:	30466002 	subcc	r6, r6, r2
     91c:	23a06000 	movcs	r6, #0
     920:	e08aa006 	add	sl, sl, r6
     924:	e59d3044 	ldr	r3, [sp, #68]	; 0x44
     928:	e0403003 	sub	r3, r0, r3
     92c:	e1520003 	cmp	r2, r3
     930:	30433002 	subcc	r3, r3, r2
     934:	23a03000 	movcs	r3, #0
     938:	e0888003 	add	r8, r8, r3
     93c:	e28d3080 	add	r3, sp, #128	; 0x80
     940:	e1530007 	cmp	r3, r7
     944:	1affffd4 	bne	89c <memory_calibrate+0x5a8>
     948:	e59d601c 	ldr	r6, [sp, #28]
     94c:	e1a0000a 	mov	r0, sl
     950:	e1a01006 	mov	r1, r6
     954:	ebfffffe 	bl	0 <__aeabi_uidiv>
     958:	e1a01006 	mov	r1, r6
     95c:	e3a07000 	mov	r7, #0
     960:	e5850028 	str	r0, [r5, #40]	; 0x28
     964:	e1a00008 	mov	r0, r8
     968:	e28d6078 	add	r6, sp, #120	; 0x78
     96c:	ebfffffe 	bl	0 <__aeabi_uidiv>
     970:	e5850094 	str	r0, [r5, #148]	; 0x94
     974:	e4963004 	ldr	r3, [r6], #4
     978:	e3530000 	cmp	r3, #0
     97c:	1a0000e0 	bne	d04 <memory_calibrate+0xa10>
     980:	e28d3080 	add	r3, sp, #128	; 0x80
     984:	e1530006 	cmp	r3, r6
     988:	1afffff9 	bne	974 <memory_calibrate+0x680>
     98c:	e1a00007 	mov	r0, r7
     990:	e59d101c 	ldr	r1, [sp, #28]
     994:	ebfffffe 	bl	0 <__aeabi_uidiv>
     998:	e3a08000 	mov	r8, #0
     99c:	e28d7078 	add	r7, sp, #120	; 0x78
     9a0:	e5850124 	str	r0, [r5, #292]	; 0x124
     9a4:	e4973004 	ldr	r3, [r7], #4
     9a8:	e3530000 	cmp	r3, #0
     9ac:	1a0000ed 	bne	d68 <memory_calibrate+0xa74>
     9b0:	e28d3080 	add	r3, sp, #128	; 0x80
     9b4:	e1530007 	cmp	r3, r7
     9b8:	1afffff9 	bne	9a4 <memory_calibrate+0x6b0>
     9bc:	e1a00008 	mov	r0, r8
     9c0:	e59d101c 	ldr	r1, [sp, #28]
     9c4:	ebfffffe 	bl	0 <__aeabi_uidiv>
     9c8:	e595e028 	ldr	lr, [r5, #40]	; 0x28
     9cc:	e595c070 	ldr	ip, [r5, #112]	; 0x70
     9d0:	e59520b8 	ldr	r2, [r5, #184]	; 0xb8
     9d4:	e08e600c 	add	r6, lr, ip
     9d8:	e5953004 	ldr	r3, [r5, #4]
     9dc:	e1a060a6 	lsr	r6, r6, #1
     9e0:	e08e1002 	add	r1, lr, r2
     9e4:	e0827003 	add	r7, r2, r3
     9e8:	e1520003 	cmp	r2, r3
     9ec:	e1a070a7 	lsr	r7, r7, #1
     9f0:	e1a010a1 	lsr	r1, r1, #1
     9f4:	e59d8048 	ldr	r8, [sp, #72]	; 0x48
     9f8:	e59da028 	ldr	sl, [sp, #40]	; 0x28
     9fc:	e5850100 	str	r0, [r5, #256]	; 0x100
     a00:	e4886004 	str	r6, [r8], #4
     a04:	e58d8048 	str	r8, [sp, #72]	; 0x48
     a08:	e59d8024 	ldr	r8, [sp, #36]	; 0x24
     a0c:	e58a7004 	str	r7, [sl, #4]
     a10:	e5881004 	str	r1, [r8, #4]
     a14:	85887004 	strhi	r7, [r8, #4]
     a18:	859f7570 	ldrhi	r7, [pc, #1392]	; f90 <memory_calibrate+0xc9c>
     a1c:	858a7004 	strhi	r7, [sl, #4]
     a20:	e15e0002 	cmp	lr, r2
     a24:	83a08000 	movhi	r8, #0
     a28:	859d7024 	ldrhi	r7, [sp, #36]	; 0x24
     a2c:	85878004 	strhi	r8, [r7, #4]
     a30:	859d7028 	ldrhi	r7, [sp, #40]	; 0x28
     a34:	85871004 	strhi	r1, [r7, #4]
     a38:	e150000e 	cmp	r0, lr
     a3c:	23a07000 	movcs	r7, #0
     a40:	33a07001 	movcc	r7, #1
     a44:	e1500002 	cmp	r0, r2
     a48:	93a07000 	movls	r7, #0
     a4c:	e3570000 	cmp	r7, #0
     a50:	1a0000e0 	bne	dd8 <memory_calibrate+0xae4>
     a54:	e08e3003 	add	r3, lr, r3
     a58:	e5958094 	ldr	r8, [r5, #148]	; 0x94
     a5c:	e1a030a3 	lsr	r3, r3, #1
     a60:	e1530001 	cmp	r3, r1
     a64:	e08cc008 	add	ip, ip, r8
     a68:	31a08001 	movcc	r8, r1
     a6c:	21a08003 	movcs	r8, r3
     a70:	e15e0002 	cmp	lr, r2
     a74:	e59de03c 	ldr	lr, [sp, #60]	; 0x3c
     a78:	e1a0c0ac 	lsr	ip, ip, #1
     a7c:	959d1020 	ldrls	r1, [sp, #32]
     a80:	e58ec028 	str	ip, [lr, #40]	; 0x28
     a84:	859dc020 	ldrhi	ip, [sp, #32]
     a88:	95816004 	strls	r6, [r1, #4]
     a8c:	e58e8004 	str	r8, [lr, #4]
     a90:	858c1004 	strhi	r1, [ip, #4]
     a94:	e3570000 	cmp	r7, #0
     a98:	1a0000d6 	bne	df8 <memory_calibrate+0xb04>
     a9c:	e59d3020 	ldr	r3, [sp, #32]
     aa0:	e2844c02 	add	r4, r4, #512	; 0x200
     aa4:	e2833004 	add	r3, r3, #4
     aa8:	e58d3020 	str	r3, [sp, #32]
     aac:	e59d303c 	ldr	r3, [sp, #60]	; 0x3c
     ab0:	e3540c12 	cmp	r4, #4608	; 0x1200
     ab4:	e2833004 	add	r3, r3, #4
     ab8:	e58d303c 	str	r3, [sp, #60]	; 0x3c
     abc:	e59d3024 	ldr	r3, [sp, #36]	; 0x24
     ac0:	e2855004 	add	r5, r5, #4
     ac4:	e2833004 	add	r3, r3, #4
     ac8:	e58d3024 	str	r3, [sp, #36]	; 0x24
     acc:	e59d3028 	ldr	r3, [sp, #40]	; 0x28
     ad0:	e2833004 	add	r3, r3, #4
     ad4:	e58d3028 	str	r3, [sp, #40]	; 0x28
     ad8:	1affff21 	bne	764 <memory_calibrate+0x470>
     adc:	e59f34b0 	ldr	r3, [pc, #1200]	; f94 <memory_calibrate+0xca0>
     ae0:	e3a01008 	mov	r1, #8
     ae4:	e58d3068 	str	r3, [sp, #104]	; 0x68
     ae8:	e1a02003 	mov	r2, r3
     aec:	e3a03001 	mov	r3, #1
     af0:	e4920004 	ldr	r0, [r2], #4
     af4:	e3500000 	cmp	r0, #0
     af8:	e5920020 	ldr	r0, [r2, #32]
     afc:	e592c068 	ldr	ip, [r2, #104]	; 0x68
     b00:	03a03000 	moveq	r3, #0
     b04:	e3500000 	cmp	r0, #0
     b08:	e592008c 	ldr	r0, [r2, #140]	; 0x8c
     b0c:	03a03000 	moveq	r3, #0
     b10:	e35c0000 	cmp	ip, #0
     b14:	03a03000 	moveq	r3, #0
     b18:	e3500000 	cmp	r0, #0
     b1c:	03a03000 	moveq	r3, #0
     b20:	e2511001 	subs	r1, r1, #1
     b24:	1afffff1 	bne	af0 <memory_calibrate+0x7fc>
     b28:	e59f2464 	ldr	r2, [pc, #1124]	; f94 <memory_calibrate+0xca0>
     b2c:	e3a0e007 	mov	lr, #7
     b30:	e5920000 	ldr	r0, [r2]
     b34:	e5b21004 	ldr	r1, [r2, #4]!
     b38:	e1500001 	cmp	r0, r1
     b3c:	e1c202d0 	ldrd	r0, [r2, #32]
     b40:	23a03000 	movcs	r3, #0
     b44:	e592c068 	ldr	ip, [r2, #104]	; 0x68
     b48:	e1500001 	cmp	r0, r1
     b4c:	e592106c 	ldr	r1, [r2, #108]	; 0x6c
     b50:	23a03000 	movcs	r3, #0
     b54:	e592008c 	ldr	r0, [r2, #140]	; 0x8c
     b58:	e15c0001 	cmp	ip, r1
     b5c:	e5921090 	ldr	r1, [r2, #144]	; 0x90
     b60:	23a03000 	movcs	r3, #0
     b64:	e1500001 	cmp	r0, r1
     b68:	23a03000 	movcs	r3, #0
     b6c:	e25ee001 	subs	lr, lr, #1
     b70:	1affffee 	bne	b30 <memory_calibrate+0x83c>
     b74:	e3530000 	cmp	r3, #0
     b78:	1a0000a5 	bne	e14 <memory_calibrate+0xb20>
     b7c:	e59d3034 	ldr	r3, [sp, #52]	; 0x34
     b80:	e2533001 	subs	r3, r3, #1
     b84:	e58d3034 	str	r3, [sp, #52]	; 0x34
     b88:	1afffee8 	bne	730 <memory_calibrate+0x43c>
     b8c:	e59d8030 	ldr	r8, [sp, #48]	; 0x30
     b90:	e1a0a00b 	mov	sl, fp
     b94:	e3a06011 	mov	r6, #17
     b98:	e1a0b003 	mov	fp, r3
     b9c:	e3a05001 	mov	r5, #1
     ba0:	e28d4078 	add	r4, sp, #120	; 0x78
     ba4:	e3a03000 	mov	r3, #0
     ba8:	e1a07705 	lsl	r7, r5, #14
     bac:	e58db020 	str	fp, [sp, #32]
     bb0:	e58d6024 	str	r6, [sp, #36]	; 0x24
     bb4:	e1a0b005 	mov	fp, r5
     bb8:	e1a06003 	mov	r6, r3
     bbc:	e1a05004 	mov	r5, r4
     bc0:	e3a02002 	mov	r2, #2
     bc4:	e58d205c 	str	r2, [sp, #92]	; 0x5c
     bc8:	e4951004 	ldr	r1, [r5], #4
     bcc:	e3510000 	cmp	r1, #0
     bd0:	0a00000f 	beq	c14 <memory_calibrate+0x920>
     bd4:	e3a00000 	mov	r0, #0
     bd8:	ee070f5e 	mcr	15, 0, r0, cr7, cr14, {2}
     bdc:	f57ff06f 	isb	sy
     be0:	ebfffffe 	bl	23d0 <get_ticks>
     be4:	e1a01007 	mov	r1, r7
     be8:	e1a04000 	mov	r4, r0
     bec:	e5150004 	ldr	r0, [r5, #-4]
     bf0:	ebfffffe 	bl	148 <memory_read>
     bf4:	ebfffffe 	bl	23d0 <get_ticks>
     bf8:	e59f33e0 	ldr	r3, [pc, #992]	; fe0 <memory_calibrate+0xcec>
     bfc:	e593c000 	ldr	ip, [r3]
     c00:	e0401004 	sub	r1, r0, r4
     c04:	e15c0001 	cmp	ip, r1
     c08:	3041100c 	subcc	r1, r1, ip
     c0c:	23a01000 	movcs	r1, #0
     c10:	e0866001 	add	r6, r6, r1
     c14:	e59d305c 	ldr	r3, [sp, #92]	; 0x5c
     c18:	e3530001 	cmp	r3, #1
     c1c:	0a000081 	beq	e28 <memory_calibrate+0xb34>
     c20:	e3a03001 	mov	r3, #1
     c24:	e58d305c 	str	r3, [sp, #92]	; 0x5c
     c28:	eaffffe6 	b	bc8 <memory_calibrate+0x8d4>
     c2c:	e3a00000 	mov	r0, #0
     c30:	ee070f5e 	mcr	15, 0, r0, cr7, cr14, {2}
     c34:	f57ff06f 	isb	sy
     c38:	e59d3030 	ldr	r3, [sp, #48]	; 0x30
     c3c:	e243a004 	sub	sl, r3, #4
     c40:	e1a0300a 	mov	r3, sl
     c44:	e3a02000 	mov	r2, #0
     c48:	e5a32004 	str	r2, [r3, #4]!
     c4c:	e59d2040 	ldr	r2, [sp, #64]	; 0x40
     c50:	e1520003 	cmp	r2, r3
     c54:	1afffffa 	bne	c44 <memory_calibrate+0x950>
     c58:	ebfffffe 	bl	23d0 <get_ticks>
     c5c:	e1a02004 	mov	r2, r4
     c60:	e5171004 	ldr	r1, [r7, #-4]
     c64:	e1a06000 	mov	r6, r0
     c68:	e1a0000b 	mov	r0, fp
     c6c:	ebfffffe 	bl	174 <memory_copy>
     c70:	ebfffffe 	bl	23d0 <get_ticks>
     c74:	e1a03000 	mov	r3, r0
     c78:	e3a00000 	mov	r0, #0
     c7c:	ee070f5e 	mcr	15, 0, r0, cr7, cr14, {2}
     c80:	f57ff06f 	isb	sy
     c84:	e3a02000 	mov	r2, #0
     c88:	e5aa2004 	str	r2, [sl, #4]!
     c8c:	e59d2040 	ldr	r2, [sp, #64]	; 0x40
     c90:	e15a0002 	cmp	sl, r2
     c94:	1afffffa 	bne	c84 <memory_calibrate+0x990>
     c98:	e517a004 	ldr	sl, [r7, #-4]
     c9c:	e1a01004 	mov	r1, r4
     ca0:	e1a0000a 	mov	r0, sl
     ca4:	e0436006 	sub	r6, r3, r6
     ca8:	ebfffffe 	bl	148 <memory_read>
     cac:	ebfffffe 	bl	23d0 <get_ticks>
     cb0:	e1a02004 	mov	r2, r4
     cb4:	e1a0100a 	mov	r1, sl
     cb8:	e58d004c 	str	r0, [sp, #76]	; 0x4c
     cbc:	e1a0000b 	mov	r0, fp
     cc0:	ebfffffe 	bl	174 <memory_copy>
     cc4:	ebfffffe 	bl	23d0 <get_ticks>
     cc8:	e59f3310 	ldr	r3, [pc, #784]	; fe0 <memory_calibrate+0xcec>
     ccc:	e5932000 	ldr	r2, [r3]
     cd0:	e1520006 	cmp	r2, r6
     cd4:	30466002 	subcc	r6, r6, r2
     cd8:	23a06000 	movcs	r6, #0
     cdc:	e0888006 	add	r8, r8, r6
     ce0:	e59d304c 	ldr	r3, [sp, #76]	; 0x4c
     ce4:	e0403003 	sub	r3, r0, r3
     ce8:	e1520003 	cmp	r2, r3
     cec:	30433002 	subcc	r3, r3, r2
     cf0:	e59d2044 	ldr	r2, [sp, #68]	; 0x44
     cf4:	23a03000 	movcs	r3, #0
     cf8:	e0823003 	add	r3, r2, r3
     cfc:	e58d3044 	str	r3, [sp, #68]	; 0x44
     d00:	eafffed6 	b	860 <memory_calibrate+0x56c>
     d04:	e3a00000 	mov	r0, #0
     d08:	ee070f5e 	mcr	15, 0, r0, cr7, cr14, {2}
     d0c:	f57ff06f 	isb	sy
     d10:	e59d3030 	ldr	r3, [sp, #48]	; 0x30
     d14:	e2433004 	sub	r3, r3, #4
     d18:	e3a02000 	mov	r2, #0
     d1c:	e5a32004 	str	r2, [r3, #4]!
     d20:	e59d2040 	ldr	r2, [sp, #64]	; 0x40
     d24:	e1520003 	cmp	r2, r3
     d28:	1afffffa 	bne	d18 <memory_calibrate+0xa24>
     d2c:	ebfffffe 	bl	23d0 <get_ticks>
     d30:	e1a02004 	mov	r2, r4
     d34:	e5161004 	ldr	r1, [r6, #-4]
     d38:	e1a08000 	mov	r8, r0
     d3c:	e1a0000b 	mov	r0, fp
     d40:	ebfffffe 	bl	174 <memory_copy>
     d44:	ebfffffe 	bl	23d0 <get_ticks>
     d48:	e59f3290 	ldr	r3, [pc, #656]	; fe0 <memory_calibrate+0xcec>
     d4c:	e5932000 	ldr	r2, [r3]
     d50:	e0403008 	sub	r3, r0, r8
     d54:	e1520003 	cmp	r2, r3
     d58:	30433002 	subcc	r3, r3, r2
     d5c:	23a03000 	movcs	r3, #0
     d60:	e0877003 	add	r7, r7, r3
     d64:	eaffff05 	b	980 <memory_calibrate+0x68c>
     d68:	e3a00000 	mov	r0, #0
     d6c:	ee070f5e 	mcr	15, 0, r0, cr7, cr14, {2}
     d70:	f57ff06f 	isb	sy
     d74:	e59d3030 	ldr	r3, [sp, #48]	; 0x30
     d78:	e2433004 	sub	r3, r3, #4
     d7c:	e3a02000 	mov	r2, #0
     d80:	e5a32004 	str	r2, [r3, #4]!
     d84:	e59d2040 	ldr	r2, [sp, #64]	; 0x40
     d88:	e1520003 	cmp	r2, r3
     d8c:	1afffffa 	bne	d7c <memory_calibrate+0xa88>
     d90:	e1a01004 	mov	r1, r4
     d94:	e1a0000b 	mov	r0, fp
     d98:	ebfffffe 	bl	148 <memory_read>
     d9c:	ebfffffe 	bl	23d0 <get_ticks>
     da0:	e1a02004 	mov	r2, r4
     da4:	e5171004 	ldr	r1, [r7, #-4]
     da8:	e1a06000 	mov	r6, r0
     dac:	e1a0000b 	mov	r0, fp
     db0:	ebfffffe 	bl	174 <memory_copy>
     db4:	ebfffffe 	bl	23d0 <get_ticks>
     db8:	e59f3220 	ldr	r3, [pc, #544]	; fe0 <memory_calibrate+0xcec>
     dbc:	e5932000 	ldr	r2, [r3]
     dc0:	e0403006 	sub	r3, r0, r6
     dc4:	e1520003 	cmp	r2, r3
     dc8:	30433002 	subcc	r3, r3, r2
     dcc:	23a03000 	movcs	r3, #0
     dd0:	e0888003 	add	r8, r8, r3
     dd4:	eafffef5 	b	9b0 <memory_calibrate+0x6bc>
     dd8:	e59da024 	ldr	sl, [sp, #36]	; 0x24
     ddc:	e3a08000 	mov	r8, #0
     de0:	e58a8004 	str	r8, [sl, #4]
     de4:	e0808002 	add	r8, r0, r2
     de8:	e59da028 	ldr	sl, [sp, #40]	; 0x28
     dec:	e1a080a8 	lsr	r8, r8, #1
     df0:	e58a8004 	str	r8, [sl, #4]
     df4:	eaffff16 	b	a54 <memory_calibrate+0x760>
     df8:	e59d103c 	ldr	r1, [sp, #60]	; 0x3c
     dfc:	e0802002 	add	r2, r0, r2
     e00:	e5813004 	str	r3, [r1, #4]
     e04:	e1a030a2 	lsr	r3, r2, #1
     e08:	e59d2020 	ldr	r2, [sp, #32]
     e0c:	e5823004 	str	r3, [r2, #4]
     e10:	eaffff21 	b	a9c <memory_calibrate+0x7a8>
     e14:	e1a0a00b 	mov	sl, fp
     e18:	e59d8030 	ldr	r8, [sp, #48]	; 0x30
     e1c:	e1a0b00e 	mov	fp, lr
     e20:	e3a06011 	mov	r6, #17
     e24:	eaffff5c 	b	b9c <memory_calibrate+0x8a8>
     e28:	e1a03006 	mov	r3, r6
     e2c:	e1a00003 	mov	r0, r3
     e30:	e59d101c 	ldr	r1, [sp, #28]
     e34:	e1a0500b 	mov	r5, fp
     e38:	e59d6024 	ldr	r6, [sp, #36]	; 0x24
     e3c:	e59db020 	ldr	fp, [sp, #32]
     e40:	ebfffffe 	bl	0 <__aeabi_uidiv>
     e44:	e28d3080 	add	r3, sp, #128	; 0x80
     e48:	e7830105 	str	r0, [r3, r5, lsl #2]
     e4c:	e2855001 	add	r5, r5, #1
     e50:	e3550009 	cmp	r5, #9
     e54:	1affff51 	bne	ba0 <memory_calibrate+0x8ac>
     e58:	e28d2084 	add	r2, sp, #132	; 0x84
     e5c:	e3a00000 	mov	r0, #0
     e60:	e3a03002 	mov	r3, #2
     e64:	e5921004 	ldr	r1, [r2, #4]
     e68:	e592c000 	ldr	ip, [r2]
     e6c:	e2833001 	add	r3, r3, #1
     e70:	e041100c 	sub	r1, r1, ip
     e74:	e3510000 	cmp	r1, #0
     e78:	a0800001 	addge	r0, r0, r1
     e7c:	e3530009 	cmp	r3, #9
     e80:	e2822004 	add	r2, r2, #4
     e84:	1afffff6 	bne	e64 <memory_calibrate+0xb70>
     e88:	e59f312c 	ldr	r3, [pc, #300]	; fbc <memory_calibrate+0xcc8>
     e8c:	e59f4114 	ldr	r4, [pc, #276]	; fa8 <memory_calibrate+0xcb4>
     e90:	e5931004 	ldr	r1, [r3, #4]
     e94:	e5945008 	ldr	r5, [r4, #8]
     e98:	e0611181 	rsb	r1, r1, r1, lsl #3
     e9c:	ebfffffe 	bl	0 <__aeabi_uidiv>
     ea0:	e59f30c4 	ldr	r3, [pc, #196]	; f6c <memory_calibrate+0xc78>
     ea4:	e1a01004 	mov	r1, r4
     ea8:	e594e00c 	ldr	lr, [r4, #12]
     eac:	e0832395 	umull	r2, r3, r5, r3
     eb0:	e3a0400a 	mov	r4, #10
     eb4:	e1a0c1a3 	lsr	ip, r3, #3
     eb8:	e5913010 	ldr	r3, [r1, #16]
     ebc:	e0615c94 	mls	r1, r4, ip, r5
     ec0:	e08e3003 	add	r3, lr, r3
     ec4:	e2433001 	sub	r3, r3, #1
     ec8:	e083300c 	add	r3, r3, ip
     ecc:	e3510000 	cmp	r1, #0
     ed0:	01a01003 	moveq	r1, r3
     ed4:	12831001 	addne	r1, r3, #1
     ed8:	e2400b01 	sub	r0, r0, #1024	; 0x400
     edc:	e0000094 	mul	r0, r4, r0
     ee0:	ebfffffe 	bl	0 <__aeabi_uidiv>
     ee4:	e1a01004 	mov	r1, r4
     ee8:	e1a05000 	mov	r5, r0
     eec:	ebfffffe 	bl	0 <__aeabi_uidivmod>
     ef0:	e59f3074 	ldr	r3, [pc, #116]	; f6c <memory_calibrate+0xc78>
     ef4:	e3510000 	cmp	r1, #0
     ef8:	10855004 	addne	r5, r5, r4
     efc:	e0810395 	umull	r0, r1, r5, r3
     f00:	e3a03000 	mov	r3, #0
     f04:	e1a021a1 	lsr	r2, r1, #3
     f08:	e1a01002 	mov	r1, r2
     f0c:	e3510000 	cmp	r1, #0
     f10:	11a010a1 	lsrne	r1, r1, #1
     f14:	12833001 	addne	r3, r3, #1
     f18:	1afffffb 	bne	f0c <memory_calibrate+0xc18>
     f1c:	e2431002 	sub	r1, r3, #2
     f20:	e3a00901 	mov	r0, #16384	; 0x4000
     f24:	e1e02132 	mvn	r2, r2, lsr r1
     f28:	e2022001 	and	r2, r2, #1
     f2c:	e0433002 	sub	r3, r3, r2
     f30:	e3a02001 	mov	r2, #1
     f34:	e1a01312 	lsl	r1, r2, r3
     f38:	ebfffffe 	bl	0 <__aeabi_uidiv>
     f3c:	e2566001 	subs	r6, r6, #1
     f40:	e08bb000 	add	fp, fp, r0
     f44:	1affff14 	bne	b9c <memory_calibrate+0x8a8>
     f48:	e1a0022b 	lsr	r0, fp, #4
     f4c:	e1a01006 	mov	r1, r6
     f50:	e1a03000 	mov	r3, r0
     f54:	e3530000 	cmp	r3, #0
     f58:	0a00003a 	beq	1048 <memory_calibrate+0xd54>
     f5c:	e1a030a3 	lsr	r3, r3, #1
     f60:	e2811001 	add	r1, r1, #1
     f64:	eafffffa 	b	f54 <memory_calibrate+0xc60>
     f68:	00000000 	andeq	r0, r0, r0
     f6c:	cccccccd 	stclgt	12, cr12, [ip], {205}	; 0xcd
     f70:	000000a4 	andeq	r0, r0, r4, lsr #1
     f74:	000000c0 	andeq	r0, r0, r0, asr #1
     f78:	000000e0 	andeq	r0, r0, r0, ror #1
     f7c:	0000000c 	andeq	r0, r0, ip
     f80:	00000068 	andeq	r0, r0, r8, rrx
     f84:	00000054 	andeq	r0, r0, r4, asr r0
     f88:	00000058 	andeq	r0, r0, r8, asr r0
     f8c:	00000204 	andeq	r0, r0, r4, lsl #4
     f90:	000f4240 	andeq	r4, pc, r0, asr #4
     f94:	000000a0 	andeq	r0, r0, r0, lsr #1
     f98:	0007fffc 	strdeq	pc, [r7], -ip
     f9c:	000002bc 			; <UNDEFINED> instruction: 0x000002bc
     fa0:	00000114 	andeq	r0, r0, r4, lsl r1
     fa4:	00000130 	andeq	r0, r0, r0, lsr r1
     fa8:	00000054 	andeq	r0, r0, r4, asr r0
     fac:	0000031c 	andeq	r0, r0, ip, lsl r3
     fb0:	0000014c 	andeq	r0, r0, ip, asr #2
     fb4:	0000016c 	andeq	r0, r0, ip, ror #2
     fb8:	00000188 	andeq	r0, r0, r8, lsl #3
     fbc:	00000000 	andeq	r0, r0, r0
     fc0:	000001a4 	andeq	r0, r0, r4, lsr #3
     fc4:	000001bc 			; <UNDEFINED> instruction: 0x000001bc
     fc8:	000001dc 	ldrdeq	r0, [r0], -ip
     fcc:	000001fc 	strdeq	r0, [r0], -ip
     fd0:	0000021c 	andeq	r0, r0, ip, lsl r2
     fd4:	10624dd3 	ldrdne	r4, [r2], #-211	; 0xffffff2d	; <UNPREDICTABLE>
     fd8:	0000023c 	andeq	r0, r0, ip, lsr r2
     fdc:	00000258 	andeq	r0, r0, r8, asr r2
     fe0:	00000000 	andeq	r0, r0, r0
     fe4:	00000274 	andeq	r0, r0, r4, ror r2
     fe8:	00000290 	muleq	r0, r0, r2
     fec:	000002ac 	andeq	r0, r0, ip, lsr #5
     ff0:	000002c8 	andeq	r0, r0, r8, asr #5
     ff4:	000002d8 	ldrdeq	r0, [r0], -r8
     ff8:	000000e8 	andeq	r0, r0, r8, ror #1
     ffc:	0000038c 	andeq	r0, r0, ip, lsl #7
    1000:	0000024c 	andeq	r0, r0, ip, asr #4
    1004:	00000270 	andeq	r0, r0, r0, ror r2
    1008:	00000294 	muleq	r0, r4, r2
    100c:	000003dc 	ldrdeq	r0, [r0], -ip
    1010:	000003a8 	andeq	r0, r0, r8, lsr #7
    1014:	000001e0 	andeq	r0, r0, r0, ror #3
    1018:	00000404 	andeq	r0, r0, r4, lsl #8
    101c:	00000304 	andeq	r0, r0, r4, lsl #6
    1020:	00000458 	andeq	r0, r0, r8, asr r4
    1024:	00000428 	andeq	r0, r0, r8, lsr #8
    1028:	00000340 	andeq	r0, r0, r0, asr #6
    102c:	00000448 	andeq	r0, r0, r8, asr #8
    1030:	000000a0 	andeq	r0, r0, r0, lsr #1
    1034:	00000318 	andeq	r0, r0, r8, lsl r3
    1038:	00000370 	andeq	r0, r0, r0, ror r3
    103c:	00000110 	andeq	r0, r0, r0, lsl r1
    1040:	00000098 	muleq	r0, r8, r0
    1044:	0000009c 	muleq	r0, ip, r0
    1048:	e2413002 	sub	r3, r1, #2
    104c:	e3a02001 	mov	r2, #1
    1050:	e1e03330 	mvn	r3, r0, lsr r3
    1054:	e0033002 	and	r3, r3, r2
    1058:	e0413003 	sub	r3, r1, r3
    105c:	e51f10bc 	ldr	r1, [pc, #-188]	; fa8 <memory_calibrate+0xcb4>
    1060:	e1a03312 	lsl	r3, r2, r3
    1064:	e51f20d4 	ldr	r2, [pc, #-212]	; f98 <memory_calibrate+0xca4>
    1068:	e5813014 	str	r3, [r1, #20]
    106c:	e0883002 	add	r3, r8, r2
    1070:	e58d303c 	str	r3, [sp, #60]	; 0x3c
    1074:	e3a03009 	mov	r3, #9
    1078:	e58d3064 	str	r3, [sp, #100]	; 0x64
    107c:	e58da020 	str	sl, [sp, #32]
    1080:	e58d8040 	str	r8, [sp, #64]	; 0x40
    1084:	e51f30f0 	ldr	r3, [pc, #-240]	; f9c <memory_calibrate+0xca8>
    1088:	e59d8060 	ldr	r8, [sp, #96]	; 0x60
    108c:	e2832f51 	add	r2, r3, #324	; 0x144
    1090:	e58d3070 	str	r3, [sp, #112]	; 0x70
    1094:	e2435070 	sub	r5, r3, #112	; 0x70
    1098:	e2433028 	sub	r3, r3, #40	; 0x28
    109c:	e58d3024 	str	r3, [sp, #36]	; 0x24
    10a0:	e242ae19 	sub	sl, r2, #400	; 0x190
    10a4:	e2833f5b 	add	r3, r3, #364	; 0x16c
    10a8:	e242be22 	sub	fp, r2, #544	; 0x220
    10ac:	e3a04c02 	mov	r4, #512	; 0x200
    10b0:	e58d3030 	str	r3, [sp, #48]	; 0x30
    10b4:	e2433f51 	sub	r3, r3, #324	; 0x144
    10b8:	e58d2074 	str	r2, [sp, #116]	; 0x74
    10bc:	e58d3028 	str	r3, [sp, #40]	; 0x28
    10c0:	e28d3078 	add	r3, sp, #120	; 0x78
    10c4:	e58d3034 	str	r3, [sp, #52]	; 0x34
    10c8:	e1a0300a 	mov	r3, sl
    10cc:	e1a0a005 	mov	sl, r5
    10d0:	e3a07000 	mov	r7, #0
    10d4:	e58d7050 	str	r7, [sp, #80]	; 0x50
    10d8:	e58d7048 	str	r7, [sp, #72]	; 0x48
    10dc:	e58d7044 	str	r7, [sp, #68]	; 0x44
    10e0:	e59d5034 	ldr	r5, [sp, #52]	; 0x34
    10e4:	e4952004 	ldr	r2, [r5], #4
    10e8:	e3520000 	cmp	r2, #0
    10ec:	e58d5034 	str	r5, [sp, #52]	; 0x34
    10f0:	0a00003f 	beq	11f4 <memory_calibrate+0xf00>
    10f4:	e58d3054 	str	r3, [sp, #84]	; 0x54
    10f8:	e3a00000 	mov	r0, #0
    10fc:	ee070f5e 	mcr	15, 0, r0, cr7, cr14, {2}
    1100:	f57ff06f 	isb	sy
    1104:	ebfffffe 	bl	23e4 <_rdtsc>
    1108:	e1a02004 	mov	r2, r4
    110c:	e5151004 	ldr	r1, [r5, #-4]
    1110:	e1a06000 	mov	r6, r0
    1114:	e59d0020 	ldr	r0, [sp, #32]
    1118:	ebfffffe 	bl	174 <memory_copy>
    111c:	ebfffffe 	bl	23e4 <_rdtsc>
    1120:	e0406006 	sub	r6, r0, r6
    1124:	e3a00000 	mov	r0, #0
    1128:	ee070f5e 	mcr	15, 0, r0, cr7, cr14, {2}
    112c:	f57ff06f 	isb	sy
    1130:	e5155004 	ldr	r5, [r5, #-4]
    1134:	e1a01004 	mov	r1, r4
    1138:	e1a00005 	mov	r0, r5
    113c:	ebfffffe 	bl	148 <memory_read>
    1140:	ebfffffe 	bl	23e4 <_rdtsc>
    1144:	e1a02004 	mov	r2, r4
    1148:	e1a01005 	mov	r1, r5
    114c:	e58d004c 	str	r0, [sp, #76]	; 0x4c
    1150:	e59d0020 	ldr	r0, [sp, #32]
    1154:	ebfffffe 	bl	174 <memory_copy>
    1158:	ebfffffe 	bl	23e4 <_rdtsc>
    115c:	e59d3024 	ldr	r3, [sp, #36]	; 0x24
    1160:	e5931004 	ldr	r1, [r3, #4]
    1164:	e59d3054 	ldr	r3, [sp, #84]	; 0x54
    1168:	e1510006 	cmp	r1, r6
    116c:	8a000005 	bhi	1188 <memory_calibrate+0xe94>
    1170:	e59a2004 	ldr	r2, [sl, #4]
    1174:	e1520006 	cmp	r2, r6
    1178:	2a000203 	bcs	198c <memory_calibrate+0x1698>
    117c:	e5932004 	ldr	r2, [r3, #4]
    1180:	e1520006 	cmp	r2, r6
    1184:	9a000200 	bls	198c <memory_calibrate+0x1698>
    1188:	e59d204c 	ldr	r2, [sp, #76]	; 0x4c
    118c:	e0402002 	sub	r2, r0, r2
    1190:	e1510002 	cmp	r1, r2
    1194:	8a000005 	bhi	11b0 <memory_calibrate+0xebc>
    1198:	e59a0004 	ldr	r0, [sl, #4]
    119c:	e1500002 	cmp	r0, r2
    11a0:	2a000005 	bcs	11bc <memory_calibrate+0xec8>
    11a4:	e5930004 	ldr	r0, [r3, #4]
    11a8:	e1500002 	cmp	r0, r2
    11ac:	9a000002 	bls	11bc <memory_calibrate+0xec8>
    11b0:	e59d0044 	ldr	r0, [sp, #68]	; 0x44
    11b4:	e2800001 	add	r0, r0, #1
    11b8:	e58d0044 	str	r0, [sp, #68]	; 0x44
    11bc:	e1510006 	cmp	r1, r6
    11c0:	9a0001f5 	bls	199c <memory_calibrate+0x16a8>
    11c4:	e5980028 	ldr	r0, [r8, #40]	; 0x28
    11c8:	e1500006 	cmp	r0, r6
    11cc:	8a000000 	bhi	11d4 <memory_calibrate+0xee0>
    11d0:	e2877001 	add	r7, r7, #1
    11d4:	e1510002 	cmp	r1, r2
    11d8:	9a000247 	bls	1afc <memory_calibrate+0x1808>
    11dc:	e5981028 	ldr	r1, [r8, #40]	; 0x28
    11e0:	e1510002 	cmp	r1, r2
    11e4:	8a000002 	bhi	11f4 <memory_calibrate+0xf00>
    11e8:	e59d2050 	ldr	r2, [sp, #80]	; 0x50
    11ec:	e2822001 	add	r2, r2, #1
    11f0:	e58d2050 	str	r2, [sp, #80]	; 0x50
    11f4:	e59d2034 	ldr	r2, [sp, #52]	; 0x34
    11f8:	e28d1080 	add	r1, sp, #128	; 0x80
    11fc:	e1520001 	cmp	r2, r1
    1200:	1affffb6 	bne	10e0 <memory_calibrate+0xdec>
    1204:	e59d2028 	ldr	r2, [sp, #40]	; 0x28
    1208:	e1a0500a 	mov	r5, sl
    120c:	e1a0a003 	mov	sl, r3
    1210:	e3a03000 	mov	r3, #0
    1214:	e59d1048 	ldr	r1, [sp, #72]	; 0x48
    1218:	e58d3058 	str	r3, [sp, #88]	; 0x58
    121c:	e58d3054 	str	r3, [sp, #84]	; 0x54
    1220:	e58d304c 	str	r3, [sp, #76]	; 0x4c
    1224:	e58d3048 	str	r3, [sp, #72]	; 0x48
    1228:	e59d3044 	ldr	r3, [sp, #68]	; 0x44
    122c:	e4821004 	str	r1, [r2], #4
    1230:	e5823068 	str	r3, [r2, #104]	; 0x68
    1234:	e58d2028 	str	r2, [sp, #40]	; 0x28
    1238:	e59d3030 	ldr	r3, [sp, #48]	; 0x30
    123c:	e28d2078 	add	r2, sp, #120	; 0x78
    1240:	e58d2034 	str	r2, [sp, #52]	; 0x34
    1244:	e59d2050 	ldr	r2, [sp, #80]	; 0x50
    1248:	e4837004 	str	r7, [r3], #4
    124c:	e58d3030 	str	r3, [sp, #48]	; 0x30
    1250:	e5832068 	str	r2, [r3, #104]	; 0x68
    1254:	e59d2034 	ldr	r2, [sp, #52]	; 0x34
    1258:	e4923004 	ldr	r3, [r2], #4
    125c:	e3530000 	cmp	r3, #0
    1260:	e58d2034 	str	r2, [sp, #52]	; 0x34
    1264:	1a0001d3 	bne	19b8 <memory_calibrate+0x16c4>
    1268:	e59d2034 	ldr	r2, [sp, #52]	; 0x34
    126c:	e28d3080 	add	r3, sp, #128	; 0x80
    1270:	e1530002 	cmp	r3, r2
    1274:	1afffff6 	bne	1254 <memory_calibrate+0xf60>
    1278:	e59d3028 	ldr	r3, [sp, #40]	; 0x28
    127c:	e59d204c 	ldr	r2, [sp, #76]	; 0x4c
    1280:	e3a07000 	mov	r7, #0
    1284:	e5832044 	str	r2, [r3, #68]	; 0x44
    1288:	e59d2048 	ldr	r2, [sp, #72]	; 0x48
    128c:	e58d7050 	str	r7, [sp, #80]	; 0x50
    1290:	e58320b0 	str	r2, [r3, #176]	; 0xb0
    1294:	e59d3030 	ldr	r3, [sp, #48]	; 0x30
    1298:	e59d2058 	ldr	r2, [sp, #88]	; 0x58
    129c:	e58d704c 	str	r7, [sp, #76]	; 0x4c
    12a0:	e5832044 	str	r2, [r3, #68]	; 0x44
    12a4:	e28d2078 	add	r2, sp, #120	; 0x78
    12a8:	e58d2034 	str	r2, [sp, #52]	; 0x34
    12ac:	e59d2054 	ldr	r2, [sp, #84]	; 0x54
    12b0:	e58d7044 	str	r7, [sp, #68]	; 0x44
    12b4:	e58320b0 	str	r2, [r3, #176]	; 0xb0
    12b8:	e59d2034 	ldr	r2, [sp, #52]	; 0x34
    12bc:	e4923004 	ldr	r3, [r2], #4
    12c0:	e3530000 	cmp	r3, #0
    12c4:	e58d2034 	str	r2, [sp, #52]	; 0x34
    12c8:	0a00003f 	beq	13cc <memory_calibrate+0x10d8>
    12cc:	e3a00000 	mov	r0, #0
    12d0:	ee070f5e 	mcr	15, 0, r0, cr7, cr14, {2}
    12d4:	f57ff06f 	isb	sy
    12d8:	e1a01004 	mov	r1, r4
    12dc:	e59d0020 	ldr	r0, [sp, #32]
    12e0:	ebfffffe 	bl	148 <memory_read>
    12e4:	ebfffffe 	bl	23e4 <_rdtsc>
    12e8:	e1a02004 	mov	r2, r4
    12ec:	e59d3034 	ldr	r3, [sp, #52]	; 0x34
    12f0:	e1a06000 	mov	r6, r0
    12f4:	e59d0020 	ldr	r0, [sp, #32]
    12f8:	e5131004 	ldr	r1, [r3, #-4]
    12fc:	ebfffffe 	bl	174 <memory_copy>
    1300:	ebfffffe 	bl	23e4 <_rdtsc>
    1304:	e0406006 	sub	r6, r0, r6
    1308:	f57ff06f 	isb	sy
    130c:	e1a01004 	mov	r1, r4
    1310:	e59d0020 	ldr	r0, [sp, #32]
    1314:	ebfffffe 	bl	148 <memory_read>
    1318:	ebfffffe 	bl	23e4 <_rdtsc>
    131c:	e1a02004 	mov	r2, r4
    1320:	e59d3034 	ldr	r3, [sp, #52]	; 0x34
    1324:	e58d0048 	str	r0, [sp, #72]	; 0x48
    1328:	e59d0020 	ldr	r0, [sp, #32]
    132c:	e5131004 	ldr	r1, [r3, #-4]
    1330:	ebfffffe 	bl	174 <memory_copy>
    1334:	ebfffffe 	bl	23e4 <_rdtsc>
    1338:	e59d3024 	ldr	r3, [sp, #36]	; 0x24
    133c:	e5932004 	ldr	r2, [r3, #4]
    1340:	e59d3048 	ldr	r3, [sp, #72]	; 0x48
    1344:	e1520006 	cmp	r2, r6
    1348:	8a000005 	bhi	1364 <memory_calibrate+0x1070>
    134c:	e5951004 	ldr	r1, [r5, #4]
    1350:	e1510006 	cmp	r1, r6
    1354:	2a0001ef 	bcs	1b18 <memory_calibrate+0x1824>
    1358:	e59a1004 	ldr	r1, [sl, #4]
    135c:	e1510006 	cmp	r1, r6
    1360:	9a0001ec 	bls	1b18 <memory_calibrate+0x1824>
    1364:	e0403003 	sub	r3, r0, r3
    1368:	e1520003 	cmp	r2, r3
    136c:	8a000005 	bhi	1388 <memory_calibrate+0x1094>
    1370:	e5951004 	ldr	r1, [r5, #4]
    1374:	e1510003 	cmp	r1, r3
    1378:	2a000005 	bcs	1394 <memory_calibrate+0x10a0>
    137c:	e59a1004 	ldr	r1, [sl, #4]
    1380:	e1510003 	cmp	r1, r3
    1384:	9a000002 	bls	1394 <memory_calibrate+0x10a0>
    1388:	e59d1044 	ldr	r1, [sp, #68]	; 0x44
    138c:	e2811001 	add	r1, r1, #1
    1390:	e58d1044 	str	r1, [sp, #68]	; 0x44
    1394:	e1520006 	cmp	r2, r6
    1398:	9a0001e2 	bls	1b28 <memory_calibrate+0x1834>
    139c:	e5981028 	ldr	r1, [r8, #40]	; 0x28
    13a0:	e1510006 	cmp	r1, r6
    13a4:	9a000000 	bls	13ac <memory_calibrate+0x10b8>
    13a8:	e2877001 	add	r7, r7, #1
    13ac:	e1520003 	cmp	r2, r3
    13b0:	9a0001e3 	bls	1b44 <memory_calibrate+0x1850>
    13b4:	e5982028 	ldr	r2, [r8, #40]	; 0x28
    13b8:	e1520003 	cmp	r2, r3
    13bc:	9a000002 	bls	13cc <memory_calibrate+0x10d8>
    13c0:	e59d3050 	ldr	r3, [sp, #80]	; 0x50
    13c4:	e2833001 	add	r3, r3, #1
    13c8:	e58d3050 	str	r3, [sp, #80]	; 0x50
    13cc:	e59d2034 	ldr	r2, [sp, #52]	; 0x34
    13d0:	e28d3080 	add	r3, sp, #128	; 0x80
    13d4:	e1530002 	cmp	r3, r2
    13d8:	1affffb6 	bne	12b8 <memory_calibrate+0xfc4>
    13dc:	e59d3028 	ldr	r3, [sp, #40]	; 0x28
    13e0:	e59d204c 	ldr	r2, [sp, #76]	; 0x4c
    13e4:	e3a06000 	mov	r6, #0
    13e8:	e5832020 	str	r2, [r3, #32]
    13ec:	e59d2044 	ldr	r2, [sp, #68]	; 0x44
    13f0:	e58d6034 	str	r6, [sp, #52]	; 0x34
    13f4:	e583208c 	str	r2, [r3, #140]	; 0x8c
    13f8:	e59d3030 	ldr	r3, [sp, #48]	; 0x30
    13fc:	e59d2050 	ldr	r2, [sp, #80]	; 0x50
    1400:	e5837020 	str	r7, [r3, #32]
    1404:	e583208c 	str	r2, [r3, #140]	; 0x8c
    1408:	e28d7078 	add	r7, sp, #120	; 0x78
    140c:	e1a0300a 	mov	r3, sl
    1410:	e1a0a005 	mov	sl, r5
    1414:	e1a05004 	mov	r5, r4
    1418:	e4972004 	ldr	r2, [r7], #4
    141c:	e3520000 	cmp	r2, #0
    1420:	1a0001d5 	bne	1b7c <memory_calibrate+0x1888>
    1424:	e28d2080 	add	r2, sp, #128	; 0x80
    1428:	e1520007 	cmp	r2, r7
    142c:	1afffff9 	bne	1418 <memory_calibrate+0x1124>
    1430:	e59d2028 	ldr	r2, [sp, #40]	; 0x28
    1434:	e59d1034 	ldr	r1, [sp, #52]	; 0x34
    1438:	e1a04005 	mov	r4, r5
    143c:	e582111c 	str	r1, [r2, #284]	; 0x11c
    1440:	e28d2078 	add	r2, sp, #120	; 0x78
    1444:	e58d2034 	str	r2, [sp, #52]	; 0x34
    1448:	e59d2030 	ldr	r2, [sp, #48]	; 0x30
    144c:	e1a0500a 	mov	r5, sl
    1450:	e1a0a003 	mov	sl, r3
    1454:	e3a07000 	mov	r7, #0
    1458:	e582611c 	str	r6, [r2, #284]	; 0x11c
    145c:	e1a0200a 	mov	r2, sl
    1460:	e1a03002 	mov	r3, r2
    1464:	e1a0a005 	mov	sl, r5
    1468:	e1a05004 	mov	r5, r4
    146c:	e1a04007 	mov	r4, r7
    1470:	e59d1034 	ldr	r1, [sp, #52]	; 0x34
    1474:	e4912004 	ldr	r2, [r1], #4
    1478:	e3520000 	cmp	r2, #0
    147c:	e58d1034 	str	r1, [sp, #52]	; 0x34
    1480:	1a0001e3 	bne	1c14 <memory_calibrate+0x1920>
    1484:	e59d1034 	ldr	r1, [sp, #52]	; 0x34
    1488:	e28d2080 	add	r2, sp, #128	; 0x80
    148c:	e1520001 	cmp	r2, r1
    1490:	1afffff6 	bne	1470 <memory_calibrate+0x117c>
    1494:	e1a02003 	mov	r2, r3
    1498:	e1a03004 	mov	r3, r4
    149c:	e1a04005 	mov	r4, r5
    14a0:	e1a0500a 	mov	r5, sl
    14a4:	e1a0a002 	mov	sl, r2
    14a8:	e59d2028 	ldr	r2, [sp, #40]	; 0x28
    14ac:	e2844c02 	add	r4, r4, #512	; 0x200
    14b0:	e3540c12 	cmp	r4, #4608	; 0x1200
    14b4:	e58230f8 	str	r3, [r2, #248]	; 0xf8
    14b8:	e59d3030 	ldr	r3, [sp, #48]	; 0x30
    14bc:	e2888004 	add	r8, r8, #4
    14c0:	e28bb004 	add	fp, fp, #4
    14c4:	e58370f8 	str	r7, [r3, #248]	; 0xf8
    14c8:	e59d3024 	ldr	r3, [sp, #36]	; 0x24
    14cc:	e28aa004 	add	sl, sl, #4
    14d0:	e2833004 	add	r3, r3, #4
    14d4:	e2855004 	add	r5, r5, #4
    14d8:	e58d3024 	str	r3, [sp, #36]	; 0x24
    14dc:	1afffef7 	bne	10c0 <memory_calibrate+0xdcc>
    14e0:	e59d3064 	ldr	r3, [sp, #100]	; 0x64
    14e4:	e2533001 	subs	r3, r3, #1
    14e8:	e58d3064 	str	r3, [sp, #100]	; 0x64
    14ec:	1afffee4 	bne	1084 <memory_calibrate+0xd90>
    14f0:	e59d0078 	ldr	r0, [sp, #120]	; 0x78
    14f4:	e59da020 	ldr	sl, [sp, #32]
    14f8:	e3500000 	cmp	r0, #0
    14fc:	e59d8040 	ldr	r8, [sp, #64]	; 0x40
    1500:	0a000000 	beq	1508 <memory_calibrate+0x1214>
    1504:	ebfffffe 	bl	0 <vfree>
    1508:	e59d007c 	ldr	r0, [sp, #124]	; 0x7c
    150c:	e3500000 	cmp	r0, #0
    1510:	0a000000 	beq	1518 <memory_calibrate+0x1224>
    1514:	ebfffffe 	bl	0 <vfree>
    1518:	e1a0000a 	mov	r0, sl
    151c:	ebfffffe 	bl	0 <vfree>
    1520:	e1a00008 	mov	r0, r8
    1524:	ebfffffe 	bl	0 <vfree>
    1528:	e51f04f4 	ldr	r0, [pc, #-1268]	; 103c <memory_calibrate+0xd48>
    152c:	ebfffffe 	bl	0 <printk>
    1530:	e51f0598 	ldr	r0, [pc, #-1432]	; fa0 <memory_calibrate+0xcac>
    1534:	ebfffffe 	bl	0 <printk>
    1538:	e51f059c 	ldr	r0, [pc, #-1436]	; fa4 <memory_calibrate+0xcb0>
    153c:	ebfffffe 	bl	0 <printk>
    1540:	e51f050c 	ldr	r0, [pc, #-1292]	; 103c <memory_calibrate+0xd48>
    1544:	ebfffffe 	bl	0 <printk>
    1548:	e51f35a8 	ldr	r3, [pc, #-1448]	; fa8 <memory_calibrate+0xcb4>
    154c:	e5932018 	ldr	r2, [r3, #24]
    1550:	e3520001 	cmp	r2, #1
    1554:	8a0001ea 	bhi	1d04 <memory_calibrate+0x1a10>
    1558:	e51f1530 	ldr	r1, [pc, #-1328]	; 1030 <memory_calibrate+0xd3c>
    155c:	e51f3524 	ldr	r3, [pc, #-1316]	; 1040 <memory_calibrate+0xd4c>
    1560:	e3a0202d 	mov	r2, #45	; 0x2d
    1564:	e51f45c4 	ldr	r4, [pc, #-1476]	; fa8 <memory_calibrate+0xcb4>
    1568:	e51f7540 	ldr	r7, [pc, #-1344]	; 1030 <memory_calibrate+0xd3c>
    156c:	e51f65c8 	ldr	r6, [pc, #-1480]	; fac <memory_calibrate+0xcb8>
    1570:	e5940000 	ldr	r0, [r4]
    1574:	e51f8548 	ldr	r8, [pc, #-1352]	; 1034 <memory_calibrate+0xd40>
    1578:	e58d0000 	str	r0, [sp]
    157c:	e51f05d4 	ldr	r0, [pc, #-1492]	; fb0 <memory_calibrate+0xcbc>
    1580:	ebfffffe 	bl	0 <printk>
    1584:	e5941014 	ldr	r1, [r4, #20]
    1588:	e51f05dc 	ldr	r0, [pc, #-1500]	; fb4 <memory_calibrate+0xcc0>
    158c:	ebfffffe 	bl	0 <printk>
    1590:	e51f35dc 	ldr	r3, [pc, #-1500]	; fbc <memory_calibrate+0xcc8>
    1594:	e51f05e4 	ldr	r0, [pc, #-1508]	; fb8 <memory_calibrate+0xcc4>
    1598:	e1a05003 	mov	r5, r3
    159c:	e5931000 	ldr	r1, [r3]
    15a0:	ebfffffe 	bl	0 <printk>
    15a4:	e5951004 	ldr	r1, [r5, #4]
    15a8:	e51f05f0 	ldr	r0, [pc, #-1520]	; fc0 <memory_calibrate+0xccc>
    15ac:	ebfffffe 	bl	0 <printk>
    15b0:	e51f057c 	ldr	r0, [pc, #-1404]	; 103c <memory_calibrate+0xd48>
    15b4:	ebfffffe 	bl	0 <printk>
    15b8:	e594100c 	ldr	r1, [r4, #12]
    15bc:	e51f0600 	ldr	r0, [pc, #-1536]	; fc4 <memory_calibrate+0xcd0>
    15c0:	ebfffffe 	bl	0 <printk>
    15c4:	e5941010 	ldr	r1, [r4, #16]
    15c8:	e51f0608 	ldr	r0, [pc, #-1544]	; fc8 <memory_calibrate+0xcd4>
    15cc:	ebfffffe 	bl	0 <printk>
    15d0:	e51f059c 	ldr	r0, [pc, #-1436]	; 103c <memory_calibrate+0xd48>
    15d4:	ebfffffe 	bl	0 <printk>
    15d8:	e51f05a4 	ldr	r0, [pc, #-1444]	; 103c <memory_calibrate+0xd48>
    15dc:	ebfffffe 	bl	0 <printk>
    15e0:	e51f061c 	ldr	r0, [pc, #-1564]	; fcc <memory_calibrate+0xcd8>
    15e4:	ebfffffe 	bl	0 <printk>
    15e8:	e51f0620 	ldr	r0, [pc, #-1568]	; fd0 <memory_calibrate+0xcdc>
    15ec:	ebfffffe 	bl	0 <printk>
    15f0:	e51f05bc 	ldr	r0, [pc, #-1468]	; 103c <memory_calibrate+0xd48>
    15f4:	ebfffffe 	bl	0 <printk>
    15f8:	e5942004 	ldr	r2, [r4, #4]
    15fc:	e51f3630 	ldr	r3, [pc, #-1584]	; fd4 <memory_calibrate+0xce0>
    1600:	e51f0630 	ldr	r0, [pc, #-1584]	; fd8 <memory_calibrate+0xce4>
    1604:	e0832392 	umull	r2, r3, r2, r3
    1608:	e1a01323 	lsr	r1, r3, #6
    160c:	ebfffffe 	bl	0 <printk>
    1610:	e51f063c 	ldr	r0, [pc, #-1596]	; fdc <memory_calibrate+0xce8>
    1614:	e59d401c 	ldr	r4, [sp, #28]
    1618:	e1a01004 	mov	r1, r4
    161c:	ebfffffe 	bl	0 <printk>
    1620:	e51f3648 	ldr	r3, [pc, #-1608]	; fe0 <memory_calibrate+0xcec>
    1624:	e51f0648 	ldr	r0, [pc, #-1608]	; fe4 <memory_calibrate+0xcf0>
    1628:	e5931000 	ldr	r1, [r3]
    162c:	ebfffffe 	bl	0 <printk>
    1630:	e51f05fc 	ldr	r0, [pc, #-1532]	; 103c <memory_calibrate+0xd48>
    1634:	ebfffffe 	bl	0 <printk>
    1638:	e1a01004 	mov	r1, r4
    163c:	e59d002c 	ldr	r0, [sp, #44]	; 0x2c
    1640:	ebfffffe 	bl	0 <__aeabi_uidiv>
    1644:	e1a01000 	mov	r1, r0
    1648:	e51f0668 	ldr	r0, [pc, #-1640]	; fe8 <memory_calibrate+0xcf4>
    164c:	ebfffffe 	bl	0 <printk>
    1650:	e1a01004 	mov	r1, r4
    1654:	e59d0038 	ldr	r0, [sp, #56]	; 0x38
    1658:	ebfffffe 	bl	0 <__aeabi_uidiv>
    165c:	e1a01000 	mov	r1, r0
    1660:	e51f067c 	ldr	r0, [pc, #-1660]	; fec <memory_calibrate+0xcf8>
    1664:	ebfffffe 	bl	0 <printk>
    1668:	e51f0634 	ldr	r0, [pc, #-1588]	; 103c <memory_calibrate+0xd48>
    166c:	ebfffffe 	bl	0 <printk>
    1670:	e51f0688 	ldr	r0, [pc, #-1672]	; ff0 <memory_calibrate+0xcfc>
    1674:	ebfffffe 	bl	0 <printk>
    1678:	e51f068c 	ldr	r0, [pc, #-1676]	; ff4 <memory_calibrate+0xd00>
    167c:	ebfffffe 	bl	0 <printk>
    1680:	e3a01001 	mov	r1, #1
    1684:	e1cd46d8 	ldrd	r4, [sp, #104]	; 0x68
    1688:	e4943004 	ldr	r3, [r4], #4
    168c:	e4950004 	ldr	r0, [r5], #4
    1690:	e3510001 	cmp	r1, #1
    1694:	e594c068 	ldr	ip, [r4, #104]	; 0x68
    1698:	e594e08c 	ldr	lr, [r4, #140]	; 0x8c
    169c:	e5942020 	ldr	r2, [r4, #32]
    16a0:	e595b020 	ldr	fp, [r5, #32]
    16a4:	e281a001 	add	sl, r1, #1
    16a8:	e58db010 	str	fp, [sp, #16]
    16ac:	e98d5001 	stmib	sp, {r0, ip, lr}
    16b0:	e58d2000 	str	r2, [sp]
    16b4:	0a00019d 	beq	1d30 <memory_calibrate+0x1a3c>
    16b8:	e1a02008 	mov	r2, r8
    16bc:	e1a00006 	mov	r0, r6
    16c0:	ebfffffe 	bl	0 <printk>
    16c4:	e35a0009 	cmp	sl, #9
    16c8:	1a00019b 	bne	1d3c <memory_calibrate+0x1a48>
    16cc:	e51f0698 	ldr	r0, [pc, #-1688]	; 103c <memory_calibrate+0xd48>
    16d0:	ebfffffe 	bl	0 <printk>
    16d4:	e51f46e4 	ldr	r4, [pc, #-1764]	; ff8 <memory_calibrate+0xd04>
    16d8:	e51f06b8 	ldr	r0, [pc, #-1720]	; 1028 <memory_calibrate+0xd34>
    16dc:	e51f76b4 	ldr	r7, [pc, #-1716]	; 1030 <memory_calibrate+0xd3c>
    16e0:	e51f66b0 	ldr	r6, [pc, #-1712]	; 1038 <memory_calibrate+0xd44>
    16e4:	e51f86b8 	ldr	r8, [pc, #-1720]	; 1034 <memory_calibrate+0xd40>
    16e8:	ebfffffe 	bl	0 <printk>
    16ec:	e3a01001 	mov	r1, #1
    16f0:	e4943004 	ldr	r3, [r4], #4
    16f4:	e3510001 	cmp	r1, #1
    16f8:	e2815001 	add	r5, r1, #1
    16fc:	e59400b0 	ldr	r0, [r4, #176]	; 0xb0
    1700:	e594c0d4 	ldr	ip, [r4, #212]	; 0xd4
    1704:	e5942068 	ldr	r2, [r4, #104]	; 0x68
    1708:	e98d1001 	stmib	sp, {r0, ip}
    170c:	e58d2000 	str	r2, [sp]
    1710:	0a00018b 	beq	1d44 <memory_calibrate+0x1a50>
    1714:	e1a02008 	mov	r2, r8
    1718:	e1a00006 	mov	r0, r6
    171c:	ebfffffe 	bl	0 <printk>
    1720:	e3550009 	cmp	r5, #9
    1724:	1a000189 	bne	1d50 <memory_calibrate+0x1a5c>
    1728:	e51f06f4 	ldr	r0, [pc, #-1780]	; 103c <memory_calibrate+0xd48>
    172c:	ebfffffe 	bl	0 <printk>
    1730:	e51f6708 	ldr	r6, [pc, #-1800]	; 1030 <memory_calibrate+0xd3c>
    1734:	e51f0740 	ldr	r0, [pc, #-1856]	; ffc <memory_calibrate+0xd08>
    1738:	e51f5730 	ldr	r5, [pc, #-1840]	; 1010 <memory_calibrate+0xd1c>
    173c:	e51f7710 	ldr	r7, [pc, #-1808]	; 1034 <memory_calibrate+0xd40>
    1740:	ebfffffe 	bl	0 <printk>
    1744:	e3a01001 	mov	r1, #1
    1748:	e51f2750 	ldr	r2, [pc, #-1872]	; 1000 <memory_calibrate+0xd0c>
    174c:	e51f0750 	ldr	r0, [pc, #-1872]	; 1004 <memory_calibrate+0xd10>
    1750:	e51f3750 	ldr	r3, [pc, #-1872]	; 1008 <memory_calibrate+0xd14>
    1754:	e7922101 	ldr	r2, [r2, r1, lsl #2]
    1758:	e7900101 	ldr	r0, [r0, r1, lsl #2]
    175c:	e3510001 	cmp	r1, #1
    1760:	e7933101 	ldr	r3, [r3, r1, lsl #2]
    1764:	e2814001 	add	r4, r1, #1
    1768:	e58d0004 	str	r0, [sp, #4]
    176c:	e58d2000 	str	r2, [sp]
    1770:	0a000178 	beq	1d58 <memory_calibrate+0x1a64>
    1774:	e1a02007 	mov	r2, r7
    1778:	e1a00005 	mov	r0, r5
    177c:	ebfffffe 	bl	0 <printk>
    1780:	e3540009 	cmp	r4, #9
    1784:	1a000176 	bne	1d64 <memory_calibrate+0x1a70>
    1788:	e51f0754 	ldr	r0, [pc, #-1876]	; 103c <memory_calibrate+0xd48>
    178c:	ebfffffe 	bl	0 <printk>
    1790:	e51f078c 	ldr	r0, [pc, #-1932]	; 100c <memory_calibrate+0xd18>
    1794:	ebfffffe 	bl	0 <printk>
    1798:	e51f7770 	ldr	r7, [pc, #-1904]	; 1030 <memory_calibrate+0xd3c>
    179c:	e51f4794 	ldr	r4, [pc, #-1940]	; 1010 <memory_calibrate+0xd1c>
    17a0:	e51f6774 	ldr	r6, [pc, #-1908]	; 1034 <memory_calibrate+0xd40>
    17a4:	e3a01001 	mov	r1, #1
    17a8:	e59d5060 	ldr	r5, [sp, #96]	; 0x60
    17ac:	e51f27a0 	ldr	r2, [pc, #-1952]	; 1014 <memory_calibrate+0xd20>
    17b0:	e5950004 	ldr	r0, [r5, #4]
    17b4:	e3510001 	cmp	r1, #1
    17b8:	e7922101 	ldr	r2, [r2, r1, lsl #2]
    17bc:	e5953028 	ldr	r3, [r5, #40]	; 0x28
    17c0:	e2818001 	add	r8, r1, #1
    17c4:	e58d0004 	str	r0, [sp, #4]
    17c8:	e58d2000 	str	r2, [sp]
    17cc:	0a000166 	beq	1d6c <memory_calibrate+0x1a78>
    17d0:	e1a02006 	mov	r2, r6
    17d4:	e1a00004 	mov	r0, r4
    17d8:	ebfffffe 	bl	0 <printk>
    17dc:	e3580009 	cmp	r8, #9
    17e0:	1a000164 	bne	1d78 <memory_calibrate+0x1a84>
    17e4:	e51f07b0 	ldr	r0, [pc, #-1968]	; 103c <memory_calibrate+0xd48>
    17e8:	ebfffffe 	bl	0 <printk>
    17ec:	e51f07dc 	ldr	r0, [pc, #-2012]	; 1018 <memory_calibrate+0xd24>
    17f0:	e51f77c8 	ldr	r7, [pc, #-1992]	; 1030 <memory_calibrate+0xd3c>
    17f4:	e51f47c4 	ldr	r4, [pc, #-1988]	; 1038 <memory_calibrate+0xd44>
    17f8:	e51f67cc 	ldr	r6, [pc, #-1996]	; 1034 <memory_calibrate+0xd40>
    17fc:	e59d101c 	ldr	r1, [sp, #28]
    1800:	ebfffffe 	bl	0 <printk>
    1804:	e51f07e8 	ldr	r0, [pc, #-2024]	; 1024 <memory_calibrate+0xd30>
    1808:	ebfffffe 	bl	0 <printk>
    180c:	e3a01001 	mov	r1, #1
    1810:	e59d5070 	ldr	r5, [sp, #112]	; 0x70
    1814:	e4953004 	ldr	r3, [r5], #4
    1818:	e3510001 	cmp	r1, #1
    181c:	e2818001 	add	r8, r1, #1
    1820:	e5950068 	ldr	r0, [r5, #104]	; 0x68
    1824:	e595c08c 	ldr	ip, [r5, #140]	; 0x8c
    1828:	e5952020 	ldr	r2, [r5, #32]
    182c:	e98d1001 	stmib	sp, {r0, ip}
    1830:	e58d2000 	str	r2, [sp]
    1834:	0a000152 	beq	1d84 <memory_calibrate+0x1a90>
    1838:	e1a02006 	mov	r2, r6
    183c:	e1a00004 	mov	r0, r4
    1840:	ebfffffe 	bl	0 <printk>
    1844:	e3580009 	cmp	r8, #9
    1848:	1a000150 	bne	1d90 <memory_calibrate+0x1a9c>
    184c:	e51f0818 	ldr	r0, [pc, #-2072]	; 103c <memory_calibrate+0xd48>
    1850:	ebfffffe 	bl	0 <printk>
    1854:	e51f4840 	ldr	r4, [pc, #-2112]	; 101c <memory_calibrate+0xd28>
    1858:	e51f0838 	ldr	r0, [pc, #-2104]	; 1028 <memory_calibrate+0xd34>
    185c:	e51f8834 	ldr	r8, [pc, #-2100]	; 1030 <memory_calibrate+0xd3c>
    1860:	e51f5830 	ldr	r5, [pc, #-2096]	; 1038 <memory_calibrate+0xd44>
    1864:	e51f7838 	ldr	r7, [pc, #-2104]	; 1034 <memory_calibrate+0xd40>
    1868:	ebfffffe 	bl	0 <printk>
    186c:	e3a01001 	mov	r1, #1
    1870:	e4943004 	ldr	r3, [r4], #4
    1874:	e3510001 	cmp	r1, #1
    1878:	e2816001 	add	r6, r1, #1
    187c:	e59400b0 	ldr	r0, [r4, #176]	; 0xb0
    1880:	e594c0d4 	ldr	ip, [r4, #212]	; 0xd4
    1884:	e5942068 	ldr	r2, [r4, #104]	; 0x68
    1888:	e98d1001 	stmib	sp, {r0, ip}
    188c:	e58d2000 	str	r2, [sp]
    1890:	0a000140 	beq	1d98 <memory_calibrate+0x1aa4>
    1894:	e1a02007 	mov	r2, r7
    1898:	e1a00005 	mov	r0, r5
    189c:	ebfffffe 	bl	0 <printk>
    18a0:	e3560009 	cmp	r6, #9
    18a4:	1a00013e 	bne	1da4 <memory_calibrate+0x1ab0>
    18a8:	e51f0874 	ldr	r0, [pc, #-2164]	; 103c <memory_calibrate+0xd48>
    18ac:	ebfffffe 	bl	0 <printk>
    18b0:	e51f0898 	ldr	r0, [pc, #-2200]	; 1020 <memory_calibrate+0xd2c>
    18b4:	e51f788c 	ldr	r7, [pc, #-2188]	; 1030 <memory_calibrate+0xd3c>
    18b8:	e51f4888 	ldr	r4, [pc, #-2184]	; 1038 <memory_calibrate+0xd44>
    18bc:	e51f6890 	ldr	r6, [pc, #-2192]	; 1034 <memory_calibrate+0xd40>
    18c0:	e59d101c 	ldr	r1, [sp, #28]
    18c4:	ebfffffe 	bl	0 <printk>
    18c8:	e51f08ac 	ldr	r0, [pc, #-2220]	; 1024 <memory_calibrate+0xd30>
    18cc:	ebfffffe 	bl	0 <printk>
    18d0:	e3a01001 	mov	r1, #1
    18d4:	e59d5074 	ldr	r5, [sp, #116]	; 0x74
    18d8:	e4953004 	ldr	r3, [r5], #4
    18dc:	e3510001 	cmp	r1, #1
    18e0:	e2818001 	add	r8, r1, #1
    18e4:	e5950068 	ldr	r0, [r5, #104]	; 0x68
    18e8:	e595c08c 	ldr	ip, [r5, #140]	; 0x8c
    18ec:	e5952020 	ldr	r2, [r5, #32]
    18f0:	e98d1001 	stmib	sp, {r0, ip}
    18f4:	e58d2000 	str	r2, [sp]
    18f8:	0a00012b 	beq	1dac <memory_calibrate+0x1ab8>
    18fc:	e1a02006 	mov	r2, r6
    1900:	e1a00004 	mov	r0, r4
    1904:	ebfffffe 	bl	0 <printk>
    1908:	e3580009 	cmp	r8, #9
    190c:	1a000129 	bne	1db8 <memory_calibrate+0x1ac4>
    1910:	e51f08dc 	ldr	r0, [pc, #-2268]	; 103c <memory_calibrate+0xd48>
    1914:	ebfffffe 	bl	0 <printk>
    1918:	e51f08f8 	ldr	r0, [pc, #-2296]	; 1028 <memory_calibrate+0xd34>
    191c:	ebfffffe 	bl	0 <printk>
    1920:	e51f48fc 	ldr	r4, [pc, #-2300]	; 102c <memory_calibrate+0xd38>
    1924:	e51f88fc 	ldr	r8, [pc, #-2300]	; 1030 <memory_calibrate+0xd3c>
    1928:	e51f58f8 	ldr	r5, [pc, #-2296]	; 1038 <memory_calibrate+0xd44>
    192c:	e51f7900 	ldr	r7, [pc, #-2304]	; 1034 <memory_calibrate+0xd40>
    1930:	e59d105c 	ldr	r1, [sp, #92]	; 0x5c
    1934:	e4943004 	ldr	r3, [r4], #4
    1938:	e3510001 	cmp	r1, #1
    193c:	e2816001 	add	r6, r1, #1
    1940:	e59400b0 	ldr	r0, [r4, #176]	; 0xb0
    1944:	e594c0d4 	ldr	ip, [r4, #212]	; 0xd4
    1948:	e5942068 	ldr	r2, [r4, #104]	; 0x68
    194c:	e98d1001 	stmib	sp, {r0, ip}
    1950:	e58d2000 	str	r2, [sp]
    1954:	0a000119 	beq	1dc0 <memory_calibrate+0x1acc>
    1958:	e1a02007 	mov	r2, r7
    195c:	e1a00005 	mov	r0, r5
    1960:	ebfffffe 	bl	0 <printk>
    1964:	e3560009 	cmp	r6, #9
    1968:	1a000117 	bne	1dcc <memory_calibrate+0x1ad8>
    196c:	e59d20a4 	ldr	r2, [sp, #164]	; 0xa4
    1970:	e5993000 	ldr	r3, [r9]
    1974:	e1520003 	cmp	r2, r3
    1978:	1a000115 	bne	1dd4 <memory_calibrate+0x1ae0>
    197c:	e51f0948 	ldr	r0, [pc, #-2376]	; 103c <memory_calibrate+0xd48>
    1980:	e28dd0ac 	add	sp, sp, #172	; 0xac
    1984:	e8bd4ff0 	pop	{r4, r5, r6, r7, r8, r9, sl, fp, lr}
    1988:	eafffffe 	b	0 <printk>
    198c:	e59d2048 	ldr	r2, [sp, #72]	; 0x48
    1990:	e2822001 	add	r2, r2, #1
    1994:	e58d2048 	str	r2, [sp, #72]	; 0x48
    1998:	eafffdfa 	b	1188 <memory_calibrate+0xe94>
    199c:	e59b0004 	ldr	r0, [fp, #4]
    19a0:	e1500006 	cmp	r0, r6
    19a4:	2afffe09 	bcs	11d0 <memory_calibrate+0xedc>
    19a8:	e5980004 	ldr	r0, [r8, #4]
    19ac:	e1500006 	cmp	r0, r6
    19b0:	8afffe07 	bhi	11d4 <memory_calibrate+0xee0>
    19b4:	eafffe05 	b	11d0 <memory_calibrate+0xedc>
    19b8:	e3a00000 	mov	r0, #0
    19bc:	ee070f5e 	mcr	15, 0, r0, cr7, cr14, {2}
    19c0:	f57ff06f 	isb	sy
    19c4:	e59d3040 	ldr	r3, [sp, #64]	; 0x40
    19c8:	e2437004 	sub	r7, r3, #4
    19cc:	e1a03007 	mov	r3, r7
    19d0:	e3a02000 	mov	r2, #0
    19d4:	e5a32004 	str	r2, [r3, #4]!
    19d8:	e59d203c 	ldr	r2, [sp, #60]	; 0x3c
    19dc:	e1520003 	cmp	r2, r3
    19e0:	1afffffa 	bne	19d0 <memory_calibrate+0x16dc>
    19e4:	ebfffffe 	bl	23e4 <_rdtsc>
    19e8:	e1a02004 	mov	r2, r4
    19ec:	e59d3034 	ldr	r3, [sp, #52]	; 0x34
    19f0:	e1a06000 	mov	r6, r0
    19f4:	e59d0020 	ldr	r0, [sp, #32]
    19f8:	e5131004 	ldr	r1, [r3, #-4]
    19fc:	ebfffffe 	bl	174 <memory_copy>
    1a00:	ebfffffe 	bl	23e4 <_rdtsc>
    1a04:	e1a03000 	mov	r3, r0
    1a08:	e3a00000 	mov	r0, #0
    1a0c:	ee070f5e 	mcr	15, 0, r0, cr7, cr14, {2}
    1a10:	f57ff06f 	isb	sy
    1a14:	e3a02000 	mov	r2, #0
    1a18:	e5a72004 	str	r2, [r7, #4]!
    1a1c:	e59d203c 	ldr	r2, [sp, #60]	; 0x3c
    1a20:	e1520007 	cmp	r2, r7
    1a24:	1afffffa 	bne	1a14 <memory_calibrate+0x1720>
    1a28:	e59d2034 	ldr	r2, [sp, #52]	; 0x34
    1a2c:	e1a01004 	mov	r1, r4
    1a30:	e0436006 	sub	r6, r3, r6
    1a34:	e5127004 	ldr	r7, [r2, #-4]
    1a38:	e1a00007 	mov	r0, r7
    1a3c:	ebfffffe 	bl	148 <memory_read>
    1a40:	ebfffffe 	bl	23e4 <_rdtsc>
    1a44:	e1a02004 	mov	r2, r4
    1a48:	e1a01007 	mov	r1, r7
    1a4c:	e58d0044 	str	r0, [sp, #68]	; 0x44
    1a50:	e59d0020 	ldr	r0, [sp, #32]
    1a54:	ebfffffe 	bl	174 <memory_copy>
    1a58:	ebfffffe 	bl	23e4 <_rdtsc>
    1a5c:	e59d3024 	ldr	r3, [sp, #36]	; 0x24
    1a60:	e5932004 	ldr	r2, [r3, #4]
    1a64:	e59d3044 	ldr	r3, [sp, #68]	; 0x44
    1a68:	e1520006 	cmp	r2, r6
    1a6c:	8a000005 	bhi	1a88 <memory_calibrate+0x1794>
    1a70:	e5951004 	ldr	r1, [r5, #4]
    1a74:	e1510006 	cmp	r1, r6
    1a78:	2a000095 	bcs	1cd4 <memory_calibrate+0x19e0>
    1a7c:	e59a1004 	ldr	r1, [sl, #4]
    1a80:	e1510006 	cmp	r1, r6
    1a84:	9a000092 	bls	1cd4 <memory_calibrate+0x19e0>
    1a88:	e0403003 	sub	r3, r0, r3
    1a8c:	e1520003 	cmp	r2, r3
    1a90:	8a000005 	bhi	1aac <memory_calibrate+0x17b8>
    1a94:	e5951004 	ldr	r1, [r5, #4]
    1a98:	e1510003 	cmp	r1, r3
    1a9c:	2a000005 	bcs	1ab8 <memory_calibrate+0x17c4>
    1aa0:	e59a1004 	ldr	r1, [sl, #4]
    1aa4:	e1510003 	cmp	r1, r3
    1aa8:	9a000002 	bls	1ab8 <memory_calibrate+0x17c4>
    1aac:	e59d1048 	ldr	r1, [sp, #72]	; 0x48
    1ab0:	e2811001 	add	r1, r1, #1
    1ab4:	e58d1048 	str	r1, [sp, #72]	; 0x48
    1ab8:	e1520006 	cmp	r2, r6
    1abc:	9a000027 	bls	1b60 <memory_calibrate+0x186c>
    1ac0:	e5981028 	ldr	r1, [r8, #40]	; 0x28
    1ac4:	e1510006 	cmp	r1, r6
    1ac8:	8a000002 	bhi	1ad8 <memory_calibrate+0x17e4>
    1acc:	e59d1058 	ldr	r1, [sp, #88]	; 0x58
    1ad0:	e2811001 	add	r1, r1, #1
    1ad4:	e58d1058 	str	r1, [sp, #88]	; 0x58
    1ad8:	e1520003 	cmp	r2, r3
    1adc:	9a00008c 	bls	1d14 <memory_calibrate+0x1a20>
    1ae0:	e5982028 	ldr	r2, [r8, #40]	; 0x28
    1ae4:	e1520003 	cmp	r2, r3
    1ae8:	8afffdde 	bhi	1268 <memory_calibrate+0xf74>
    1aec:	e59d3054 	ldr	r3, [sp, #84]	; 0x54
    1af0:	e2833001 	add	r3, r3, #1
    1af4:	e58d3054 	str	r3, [sp, #84]	; 0x54
    1af8:	eafffdda 	b	1268 <memory_calibrate+0xf74>
    1afc:	e59b1004 	ldr	r1, [fp, #4]
    1b00:	e1510002 	cmp	r1, r2
    1b04:	2afffdb7 	bcs	11e8 <memory_calibrate+0xef4>
    1b08:	e5981004 	ldr	r1, [r8, #4]
    1b0c:	e1510002 	cmp	r1, r2
    1b10:	8afffdb7 	bhi	11f4 <memory_calibrate+0xf00>
    1b14:	eafffdb3 	b	11e8 <memory_calibrate+0xef4>
    1b18:	e59d104c 	ldr	r1, [sp, #76]	; 0x4c
    1b1c:	e2811001 	add	r1, r1, #1
    1b20:	e58d104c 	str	r1, [sp, #76]	; 0x4c
    1b24:	eafffe0e 	b	1364 <memory_calibrate+0x1070>
    1b28:	e59b1004 	ldr	r1, [fp, #4]
    1b2c:	e1510006 	cmp	r1, r6
    1b30:	2afffe1d 	bcs	13ac <memory_calibrate+0x10b8>
    1b34:	e5981004 	ldr	r1, [r8, #4]
    1b38:	e1510006 	cmp	r1, r6
    1b3c:	9afffe1a 	bls	13ac <memory_calibrate+0x10b8>
    1b40:	eafffe18 	b	13a8 <memory_calibrate+0x10b4>
    1b44:	e59b2004 	ldr	r2, [fp, #4]
    1b48:	e1520003 	cmp	r2, r3
    1b4c:	2afffe1e 	bcs	13cc <memory_calibrate+0x10d8>
    1b50:	e5982004 	ldr	r2, [r8, #4]
    1b54:	e1520003 	cmp	r2, r3
    1b58:	9afffe1b 	bls	13cc <memory_calibrate+0x10d8>
    1b5c:	eafffe17 	b	13c0 <memory_calibrate+0x10cc>
    1b60:	e59b1004 	ldr	r1, [fp, #4]
    1b64:	e1510006 	cmp	r1, r6
    1b68:	2affffd7 	bcs	1acc <memory_calibrate+0x17d8>
    1b6c:	e5981004 	ldr	r1, [r8, #4]
    1b70:	e1510006 	cmp	r1, r6
    1b74:	8affffd7 	bhi	1ad8 <memory_calibrate+0x17e4>
    1b78:	eaffffd3 	b	1acc <memory_calibrate+0x17d8>
    1b7c:	e3a00000 	mov	r0, #0
    1b80:	ee070f5e 	mcr	15, 0, r0, cr7, cr14, {2}
    1b84:	f57ff06f 	isb	sy
    1b88:	e59d2040 	ldr	r2, [sp, #64]	; 0x40
    1b8c:	e2422004 	sub	r2, r2, #4
    1b90:	e3a01000 	mov	r1, #0
    1b94:	e5a21004 	str	r1, [r2, #4]!
    1b98:	e59d103c 	ldr	r1, [sp, #60]	; 0x3c
    1b9c:	e1520001 	cmp	r2, r1
    1ba0:	1afffffa 	bne	1b90 <memory_calibrate+0x189c>
    1ba4:	e58d3044 	str	r3, [sp, #68]	; 0x44
    1ba8:	ebfffffe 	bl	23e4 <_rdtsc>
    1bac:	e1a02005 	mov	r2, r5
    1bb0:	e5171004 	ldr	r1, [r7, #-4]
    1bb4:	e1a04000 	mov	r4, r0
    1bb8:	e59d0020 	ldr	r0, [sp, #32]
    1bbc:	ebfffffe 	bl	174 <memory_copy>
    1bc0:	ebfffffe 	bl	23e4 <_rdtsc>
    1bc4:	e59d3024 	ldr	r3, [sp, #36]	; 0x24
    1bc8:	e0400004 	sub	r0, r0, r4
    1bcc:	e5932004 	ldr	r2, [r3, #4]
    1bd0:	e59d3044 	ldr	r3, [sp, #68]	; 0x44
    1bd4:	e1520000 	cmp	r2, r0
    1bd8:	8a000041 	bhi	1ce4 <memory_calibrate+0x19f0>
    1bdc:	e59a2004 	ldr	r2, [sl, #4]
    1be0:	e1520000 	cmp	r2, r0
    1be4:	2a000042 	bcs	1cf4 <memory_calibrate+0x1a00>
    1be8:	e5932004 	ldr	r2, [r3, #4]
    1bec:	e1520000 	cmp	r2, r0
    1bf0:	9a00003f 	bls	1cf4 <memory_calibrate+0x1a00>
    1bf4:	e59b2004 	ldr	r2, [fp, #4]
    1bf8:	e1520000 	cmp	r2, r0
    1bfc:	2a000002 	bcs	1c0c <memory_calibrate+0x1918>
    1c00:	e5982004 	ldr	r2, [r8, #4]
    1c04:	e1520000 	cmp	r2, r0
    1c08:	8afffe05 	bhi	1424 <memory_calibrate+0x1130>
    1c0c:	e2866001 	add	r6, r6, #1
    1c10:	eafffe03 	b	1424 <memory_calibrate+0x1130>
    1c14:	e3a00000 	mov	r0, #0
    1c18:	ee070f5e 	mcr	15, 0, r0, cr7, cr14, {2}
    1c1c:	f57ff06f 	isb	sy
    1c20:	e59d2040 	ldr	r2, [sp, #64]	; 0x40
    1c24:	e2422004 	sub	r2, r2, #4
    1c28:	e3a01000 	mov	r1, #0
    1c2c:	e5a21004 	str	r1, [r2, #4]!
    1c30:	e59d103c 	ldr	r1, [sp, #60]	; 0x3c
    1c34:	e1520001 	cmp	r2, r1
    1c38:	1afffffa 	bne	1c28 <memory_calibrate+0x1934>
    1c3c:	e1a01005 	mov	r1, r5
    1c40:	e59d0020 	ldr	r0, [sp, #32]
    1c44:	e58d3044 	str	r3, [sp, #68]	; 0x44
    1c48:	ebfffffe 	bl	148 <memory_read>
    1c4c:	ebfffffe 	bl	23e4 <_rdtsc>
    1c50:	e1a02005 	mov	r2, r5
    1c54:	e59d3034 	ldr	r3, [sp, #52]	; 0x34
    1c58:	e1a06000 	mov	r6, r0
    1c5c:	e59d0020 	ldr	r0, [sp, #32]
    1c60:	e5131004 	ldr	r1, [r3, #-4]
    1c64:	ebfffffe 	bl	174 <memory_copy>
    1c68:	ebfffffe 	bl	23e4 <_rdtsc>
    1c6c:	e59d3024 	ldr	r3, [sp, #36]	; 0x24
    1c70:	e0400006 	sub	r0, r0, r6
    1c74:	e5932004 	ldr	r2, [r3, #4]
    1c78:	e59d3044 	ldr	r3, [sp, #68]	; 0x44
    1c7c:	e1520000 	cmp	r2, r0
    1c80:	8a00000d 	bhi	1cbc <memory_calibrate+0x19c8>
    1c84:	e59a2004 	ldr	r2, [sl, #4]
    1c88:	e1520000 	cmp	r2, r0
    1c8c:	2a00000e 	bcs	1ccc <memory_calibrate+0x19d8>
    1c90:	e5932004 	ldr	r2, [r3, #4]
    1c94:	e1520000 	cmp	r2, r0
    1c98:	9a00000b 	bls	1ccc <memory_calibrate+0x19d8>
    1c9c:	e59b2004 	ldr	r2, [fp, #4]
    1ca0:	e1520000 	cmp	r2, r0
    1ca4:	2afffdf6 	bcs	1484 <memory_calibrate+0x1190>
    1ca8:	e5982004 	ldr	r2, [r8, #4]
    1cac:	e1520000 	cmp	r2, r0
    1cb0:	9afffdf3 	bls	1484 <memory_calibrate+0x1190>
    1cb4:	e2877001 	add	r7, r7, #1
    1cb8:	eafffdf1 	b	1484 <memory_calibrate+0x1190>
    1cbc:	e5982028 	ldr	r2, [r8, #40]	; 0x28
    1cc0:	e1520000 	cmp	r2, r0
    1cc4:	8afffffa 	bhi	1cb4 <memory_calibrate+0x19c0>
    1cc8:	eafffded 	b	1484 <memory_calibrate+0x1190>
    1ccc:	e2844001 	add	r4, r4, #1
    1cd0:	eafffff1 	b	1c9c <memory_calibrate+0x19a8>
    1cd4:	e59d104c 	ldr	r1, [sp, #76]	; 0x4c
    1cd8:	e2811001 	add	r1, r1, #1
    1cdc:	e58d104c 	str	r1, [sp, #76]	; 0x4c
    1ce0:	eaffff68 	b	1a88 <memory_calibrate+0x1794>
    1ce4:	e5982028 	ldr	r2, [r8, #40]	; 0x28
    1ce8:	e1520000 	cmp	r2, r0
    1cec:	9affffc6 	bls	1c0c <memory_calibrate+0x1918>
    1cf0:	eafffdcb 	b	1424 <memory_calibrate+0x1130>
    1cf4:	e59d2034 	ldr	r2, [sp, #52]	; 0x34
    1cf8:	e2822001 	add	r2, r2, #1
    1cfc:	e58d2034 	str	r2, [sp, #52]	; 0x34
    1d00:	eaffffbb 	b	1bf4 <memory_calibrate+0x1900>
    1d04:	e2822030 	add	r2, r2, #48	; 0x30
    1d08:	e51f1cd0 	ldr	r1, [pc, #-3280]	; 1040 <memory_calibrate+0xd4c>
    1d0c:	e51f3cd0 	ldr	r3, [pc, #-3280]	; 1044 <memory_calibrate+0xd50>
    1d10:	eafffe13 	b	1564 <memory_calibrate+0x1270>
    1d14:	e59b2004 	ldr	r2, [fp, #4]
    1d18:	e1520003 	cmp	r2, r3
    1d1c:	2affff72 	bcs	1aec <memory_calibrate+0x17f8>
    1d20:	e5982004 	ldr	r2, [r8, #4]
    1d24:	e1520003 	cmp	r2, r3
    1d28:	8afffd4e 	bhi	1268 <memory_calibrate+0xf74>
    1d2c:	eaffff6e 	b	1aec <memory_calibrate+0x17f8>
    1d30:	e1a02007 	mov	r2, r7
    1d34:	e1a00006 	mov	r0, r6
    1d38:	ebfffffe 	bl	0 <printk>
    1d3c:	e1a0100a 	mov	r1, sl
    1d40:	eafffe50 	b	1688 <memory_calibrate+0x1394>
    1d44:	e1a02007 	mov	r2, r7
    1d48:	e1a00006 	mov	r0, r6
    1d4c:	ebfffffe 	bl	0 <printk>
    1d50:	e1a01005 	mov	r1, r5
    1d54:	eafffe65 	b	16f0 <memory_calibrate+0x13fc>
    1d58:	e1a02006 	mov	r2, r6
    1d5c:	e1a00005 	mov	r0, r5
    1d60:	ebfffffe 	bl	0 <printk>
    1d64:	e1a01004 	mov	r1, r4
    1d68:	eafffe76 	b	1748 <memory_calibrate+0x1454>
    1d6c:	e1a02007 	mov	r2, r7
    1d70:	e1a00004 	mov	r0, r4
    1d74:	ebfffffe 	bl	0 <printk>
    1d78:	e2855004 	add	r5, r5, #4
    1d7c:	e1a01008 	mov	r1, r8
    1d80:	eafffe89 	b	17ac <memory_calibrate+0x14b8>
    1d84:	e1a02007 	mov	r2, r7
    1d88:	e1a00004 	mov	r0, r4
    1d8c:	ebfffffe 	bl	0 <printk>
    1d90:	e1a01008 	mov	r1, r8
    1d94:	eafffe9e 	b	1814 <memory_calibrate+0x1520>
    1d98:	e1a02008 	mov	r2, r8
    1d9c:	e1a00005 	mov	r0, r5
    1da0:	ebfffffe 	bl	0 <printk>
    1da4:	e1a01006 	mov	r1, r6
    1da8:	eafffeb0 	b	1870 <memory_calibrate+0x157c>
    1dac:	e1a02007 	mov	r2, r7
    1db0:	e1a00004 	mov	r0, r4
    1db4:	ebfffffe 	bl	0 <printk>
    1db8:	e1a01008 	mov	r1, r8
    1dbc:	eafffec5 	b	18d8 <memory_calibrate+0x15e4>
    1dc0:	e1a02008 	mov	r2, r8
    1dc4:	e1a00005 	mov	r0, r5
    1dc8:	ebfffffe 	bl	0 <printk>
    1dcc:	e1a01006 	mov	r1, r6
    1dd0:	eafffed7 	b	1934 <memory_calibrate+0x1640>
    1dd4:	ebfffffe 	bl	0 <__stack_chk_fail>

00001dd8 <memory_was_cached>:
    1dd8:	e92d4010 	push	{r4, lr}
    1ddc:	ebfff8ba 	bl	cc <memory_time_read.constprop.0>
    1de0:	e59f3010 	ldr	r3, [pc, #16]	; 1df8 <memory_was_cached+0x20>
    1de4:	e5933008 	ldr	r3, [r3, #8]
    1de8:	e1530000 	cmp	r3, r0
    1dec:	93a00000 	movls	r0, #0
    1df0:	83a00001 	movhi	r0, #1
    1df4:	e8bd8010 	pop	{r4, pc}
    1df8:	00000000 	andeq	r0, r0, r0

00001dfc <pcm_calibrate>:
    1dfc:	e92d4ff0 	push	{r4, r5, r6, r7, r8, r9, sl, fp, lr}
    1e00:	e24dd024 	sub	sp, sp, #36	; 0x24
    1e04:	e59f328c 	ldr	r3, [pc, #652]	; 2098 <pcm_calibrate+0x29c>
    1e08:	e59f428c 	ldr	r4, [pc, #652]	; 209c <pcm_calibrate+0x2a0>
    1e0c:	e59fa28c 	ldr	sl, [pc, #652]	; 20a0 <pcm_calibrate+0x2a4>
    1e10:	e5935000 	ldr	r5, [r3]
    1e14:	e5940004 	ldr	r0, [r4, #4]
    1e18:	e5946000 	ldr	r6, [r4]
    1e1c:	e59f7280 	ldr	r7, [pc, #640]	; 20a4 <pcm_calibrate+0x2a8>
    1e20:	e0000590 	mul	r0, r0, r5
    1e24:	e1a01006 	mov	r1, r6
    1e28:	e0800100 	add	r0, r0, r0, lsl #2
    1e2c:	e1a00080 	lsl	r0, r0, #1
    1e30:	ebfffffe 	bl	0 <__aeabi_uidiv>
    1e34:	e1a01006 	mov	r1, r6
    1e38:	e59f6268 	ldr	r6, [pc, #616]	; 20a8 <pcm_calibrate+0x2ac>
    1e3c:	e1a08006 	mov	r8, r6
    1e40:	e1a09000 	mov	r9, r0
    1e44:	e5940008 	ldr	r0, [r4, #8]
    1e48:	e0000590 	mul	r0, r0, r5
    1e4c:	e3a05c02 	mov	r5, #512	; 0x200
    1e50:	e0800100 	add	r0, r0, r0, lsl #2
    1e54:	e1a00080 	lsl	r0, r0, #1
    1e58:	ebfffffe 	bl	0 <__aeabi_uidiv>
    1e5c:	e59f323c 	ldr	r3, [pc, #572]	; 20a0 <pcm_calibrate+0x2a4>
    1e60:	e59fc244 	ldr	ip, [pc, #580]	; 20ac <pcm_calibrate+0x2b0>
    1e64:	e59f1244 	ldr	r1, [pc, #580]	; 20b0 <pcm_calibrate+0x2b4>
    1e68:	e0832993 	umull	r2, r3, r3, r9
    1e6c:	e5911000 	ldr	r1, [r1]
    1e70:	e1a031a3 	lsr	r3, r3, #3
    1e74:	e0833103 	add	r3, r3, r3, lsl #2
    1e78:	e0493083 	sub	r3, r9, r3, lsl #1
    1e7c:	e3530004 	cmp	r3, #4
    1e80:	e59f3218 	ldr	r3, [pc, #536]	; 20a0 <pcm_calibrate+0x2a4>
    1e84:	8289900a 	addhi	r9, r9, #10
    1e88:	e0832093 	umull	r2, r3, r3, r0
    1e8c:	e59f2220 	ldr	r2, [pc, #544]	; 20b4 <pcm_calibrate+0x2b8>
    1e90:	e58d6018 	str	r6, [sp, #24]
    1e94:	e1a031a3 	lsr	r3, r3, #3
    1e98:	e58d701c 	str	r7, [sp, #28]
    1e9c:	e0833103 	add	r3, r3, r3, lsl #2
    1ea0:	e0403083 	sub	r3, r0, r3, lsl #1
    1ea4:	e3530004 	cmp	r3, #4
    1ea8:	8280000a 	addhi	r0, r0, #10
    1eac:	e08e399a 	umull	r3, lr, sl, r9
    1eb0:	e08a309a 	umull	r3, sl, sl, r0
    1eb4:	e594000c 	ldr	r0, [r4, #12]
    1eb8:	e59f31f8 	ldr	r3, [pc, #504]	; 20b8 <pcm_calibrate+0x2bc>
    1ebc:	e58d0014 	str	r0, [sp, #20]
    1ec0:	e59c0000 	ldr	r0, [ip]
    1ec4:	e5939000 	ldr	r9, [r3]
    1ec8:	e58d0010 	str	r0, [sp, #16]
    1ecc:	e5920000 	ldr	r0, [r2]
    1ed0:	e1a031ae 	lsr	r3, lr, #3
    1ed4:	e1a0a1aa 	lsr	sl, sl, #3
    1ed8:	e506300c 	str	r3, [r6, #-12]
    1edc:	e506a008 	str	sl, [r6, #-8]
    1ee0:	e1a0b000 	mov	fp, r0
    1ee4:	e1a06009 	mov	r6, r9
    1ee8:	e1a09001 	mov	r9, r1
    1eec:	e58d300c 	str	r3, [sp, #12]
    1ef0:	e59d1010 	ldr	r1, [sp, #16]
    1ef4:	e1a00005 	mov	r0, r5
    1ef8:	ebfffffe 	bl	0 <__aeabi_uidiv>
    1efc:	e1a04000 	mov	r4, r0
    1f00:	e59d1014 	ldr	r1, [sp, #20]
    1f04:	e1a00005 	mov	r0, r5
    1f08:	ebfffffe 	bl	0 <__aeabi_uidiv>
    1f0c:	e2855c02 	add	r5, r5, #512	; 0x200
    1f10:	e3550c12 	cmp	r5, #4608	; 0x1200
    1f14:	e59d300c 	ldr	r3, [sp, #12]
    1f18:	e0010390 	mul	r1, r0, r3
    1f1c:	e0000a90 	mul	r0, r0, sl
    1f20:	e0611994 	mls	r1, r4, r9, r1
    1f24:	e0640b94 	mls	r4, r4, fp, r0
    1f28:	e4970004 	ldr	r0, [r7], #4
    1f2c:	e0210196 	mla	r1, r6, r1, r0
    1f30:	e0240496 	mla	r4, r6, r4, r0
    1f34:	e4881004 	str	r1, [r8], #4
    1f38:	e5884020 	str	r4, [r8, #32]
    1f3c:	1affffeb 	bne	1ef0 <pcm_calibrate+0xf4>
    1f40:	e1cd61d8 	ldrd	r6, [sp, #24]
    1f44:	e59f1170 	ldr	r1, [pc, #368]	; 20bc <pcm_calibrate+0x2c0>
    1f48:	e59fc170 	ldr	ip, [pc, #368]	; 20c0 <pcm_calibrate+0x2c4>
    1f4c:	e4962004 	ldr	r2, [r6], #4
    1f50:	e4970004 	ldr	r0, [r7], #4
    1f54:	e5963020 	ldr	r3, [r6, #32]
    1f58:	e0422000 	sub	r2, r2, r0
    1f5c:	e0433000 	sub	r3, r3, r0
    1f60:	e15c0007 	cmp	ip, r7
    1f64:	e4812004 	str	r2, [r1], #4
    1f68:	e5813020 	str	r3, [r1, #32]
    1f6c:	1afffff6 	bne	1f4c <pcm_calibrate+0x150>
    1f70:	e59f014c 	ldr	r0, [pc, #332]	; 20c4 <pcm_calibrate+0x2c8>
    1f74:	ebfffffe 	bl	0 <printk>
    1f78:	e59f0148 	ldr	r0, [pc, #328]	; 20c8 <pcm_calibrate+0x2cc>
    1f7c:	ebfffffe 	bl	0 <printk>
    1f80:	e59f0144 	ldr	r0, [pc, #324]	; 20cc <pcm_calibrate+0x2d0>
    1f84:	ebfffffe 	bl	0 <printk>
    1f88:	e59f0134 	ldr	r0, [pc, #308]	; 20c4 <pcm_calibrate+0x2c8>
    1f8c:	ebfffffe 	bl	0 <printk>
    1f90:	e59f3138 	ldr	r3, [pc, #312]	; 20d0 <pcm_calibrate+0x2d4>
    1f94:	e59f0138 	ldr	r0, [pc, #312]	; 20d4 <pcm_calibrate+0x2d8>
    1f98:	e1a04003 	mov	r4, r3
    1f9c:	e5931000 	ldr	r1, [r3]
    1fa0:	ebfffffe 	bl	0 <printk>
    1fa4:	e5941004 	ldr	r1, [r4, #4]
    1fa8:	e59f0128 	ldr	r0, [pc, #296]	; 20d8 <pcm_calibrate+0x2dc>
    1fac:	ebfffffe 	bl	0 <printk>
    1fb0:	e59f010c 	ldr	r0, [pc, #268]	; 20c4 <pcm_calibrate+0x2c8>
    1fb4:	ebfffffe 	bl	0 <printk>
    1fb8:	e59f911c 	ldr	r9, [pc, #284]	; 20dc <pcm_calibrate+0x2e0>
    1fbc:	e59f011c 	ldr	r0, [pc, #284]	; 20e0 <pcm_calibrate+0x2e4>
    1fc0:	e59f511c 	ldr	r5, [pc, #284]	; 20e4 <pcm_calibrate+0x2e8>
    1fc4:	e59f811c 	ldr	r8, [pc, #284]	; 20e8 <pcm_calibrate+0x2ec>
    1fc8:	ebfffffe 	bl	0 <printk>
    1fcc:	e2844008 	add	r4, r4, #8
    1fd0:	e3a0c001 	mov	ip, #1
    1fd4:	e594e004 	ldr	lr, [r4, #4]
    1fd8:	e5946028 	ldr	r6, [r4, #40]	; 0x28
    1fdc:	e35c0001 	cmp	ip, #1
    1fe0:	e1a0100c 	mov	r1, ip
    1fe4:	e1a02008 	mov	r2, r8
    1fe8:	e1a00005 	mov	r0, r5
    1fec:	e1a0300e 	mov	r3, lr
    1ff0:	e28c7001 	add	r7, ip, #1
    1ff4:	e58d6000 	str	r6, [sp]
    1ff8:	0a00001c 	beq	2070 <pcm_calibrate+0x274>
    1ffc:	ebfffffe 	bl	0 <printk>
    2000:	e3570009 	cmp	r7, #9
    2004:	1a00001b 	bne	2078 <pcm_calibrate+0x27c>
    2008:	e59f00b4 	ldr	r0, [pc, #180]	; 20c4 <pcm_calibrate+0x2c8>
    200c:	ebfffffe 	bl	0 <printk>
    2010:	e59f40d4 	ldr	r4, [pc, #212]	; 20ec <pcm_calibrate+0x2f0>
    2014:	e59f00d4 	ldr	r0, [pc, #212]	; 20f0 <pcm_calibrate+0x2f4>
    2018:	e59f90bc 	ldr	r9, [pc, #188]	; 20dc <pcm_calibrate+0x2e0>
    201c:	e59f50c0 	ldr	r5, [pc, #192]	; 20e4 <pcm_calibrate+0x2e8>
    2020:	e59f80c0 	ldr	r8, [pc, #192]	; 20e8 <pcm_calibrate+0x2ec>
    2024:	ebfffffe 	bl	0 <printk>
    2028:	e3a0c001 	mov	ip, #1
    202c:	e594e004 	ldr	lr, [r4, #4]
    2030:	e5946028 	ldr	r6, [r4, #40]	; 0x28
    2034:	e35c0001 	cmp	ip, #1
    2038:	e1a0100c 	mov	r1, ip
    203c:	e1a02008 	mov	r2, r8
    2040:	e1a00005 	mov	r0, r5
    2044:	e1a0300e 	mov	r3, lr
    2048:	e28c7001 	add	r7, ip, #1
    204c:	e58d6000 	str	r6, [sp]
    2050:	0a00000b 	beq	2084 <pcm_calibrate+0x288>
    2054:	ebfffffe 	bl	0 <printk>
    2058:	e3570009 	cmp	r7, #9
    205c:	1a00000a 	bne	208c <pcm_calibrate+0x290>
    2060:	e59f005c 	ldr	r0, [pc, #92]	; 20c4 <pcm_calibrate+0x2c8>
    2064:	e28dd024 	add	sp, sp, #36	; 0x24
    2068:	e8bd4ff0 	pop	{r4, r5, r6, r7, r8, r9, sl, fp, lr}
    206c:	eafffffe 	b	0 <printk>
    2070:	e1a02009 	mov	r2, r9
    2074:	ebfffffe 	bl	0 <printk>
    2078:	e2844004 	add	r4, r4, #4
    207c:	e1a0c007 	mov	ip, r7
    2080:	eaffffd3 	b	1fd4 <pcm_calibrate+0x1d8>
    2084:	e1a02009 	mov	r2, r9
    2088:	ebfffffe 	bl	0 <printk>
    208c:	e2844004 	add	r4, r4, #4
    2090:	e1a0c007 	mov	ip, r7
    2094:	eaffffe4 	b	202c <pcm_calibrate+0x230>
    2098:	00000000 	andeq	r0, r0, r0
    209c:	00000070 	andeq	r0, r0, r0, ror r0
    20a0:	cccccccd 	stclgt	12, cr12, [ip], {205}	; 0xcd
    20a4:	00000004 	andeq	r0, r0, r4
    20a8:	000006d8 	ldrdeq	r0, [r0], -r8
	...
    20bc:	00000720 	andeq	r0, r0, r0, lsr #14
    20c0:	00000024 	andeq	r0, r0, r4, lsr #32
    20c4:	00000480 	andeq	r0, r0, r0, lsl #9
    20c8:	00000484 	andeq	r0, r0, r4, lsl #9
    20cc:	000004a0 	andeq	r0, r0, r0, lsr #9
    20d0:	000006cc 	andeq	r0, r0, ip, asr #13
    20d4:	000004bc 			; <UNDEFINED> instruction: 0x000004bc
    20d8:	000004dc 	ldrdeq	r0, [r0], -ip
    20dc:	00000548 	andeq	r0, r0, r8, asr #10
    20e0:	000004fc 	strdeq	r0, [r0], -ip
    20e4:	00000508 	andeq	r0, r0, r8, lsl #10
    20e8:	00000504 	andeq	r0, r0, r4, lsl #10
    20ec:	0000071c 	andeq	r0, r0, ip, lsl r7
    20f0:	0000053c 	andeq	r0, r0, ip, lsr r5

000020f4 <pcm_model_allocate>:
    20f4:	e59f3054 	ldr	r3, [pc, #84]	; 2150 <pcm_model_allocate+0x5c>
    20f8:	e92d4070 	push	{r4, r5, r6, lr}
    20fc:	e3a02018 	mov	r2, #24
    2100:	e1a04000 	mov	r4, r0
    2104:	e59f1048 	ldr	r1, [pc, #72]	; 2154 <pcm_model_allocate+0x60>
    2108:	e5930018 	ldr	r0, [r3, #24]
    210c:	ebfffffe 	bl	0 <kmem_cache_alloc_trace>
    2110:	e2505000 	subs	r5, r0, #0
    2114:	0a000007 	beq	2138 <pcm_model_allocate+0x44>
    2118:	e1a002a4 	lsr	r0, r4, #5
    211c:	e2800004 	add	r0, r0, #4
    2120:	e59f102c 	ldr	r1, [pc, #44]	; 2154 <pcm_model_allocate+0x60>
    2124:	ebfffffe 	bl	0 <__kmalloc>
    2128:	e3500000 	cmp	r0, #0
    212c:	e1a04000 	mov	r4, r0
    2130:	e5850000 	str	r0, [r5]
    2134:	0a000001 	beq	2140 <pcm_model_allocate+0x4c>
    2138:	e1a00005 	mov	r0, r5
    213c:	e8bd8070 	pop	{r4, r5, r6, pc}
    2140:	e1a00005 	mov	r0, r5
    2144:	ebfffffe 	bl	0 <kfree>
    2148:	e1a05004 	mov	r5, r4
    214c:	eafffff9 	b	2138 <pcm_model_allocate+0x44>
    2150:	00000000 	andeq	r0, r0, r0
    2154:	006080c0 	rsbeq	r8, r0, r0, asr #1

00002158 <pcm_read>:
    2158:	e92d4ff8 	push	{r3, r4, r5, r6, r7, r8, r9, sl, fp, lr}
    215c:	e1a064a3 	lsr	r6, r3, #9
    2160:	e3560008 	cmp	r6, #8
    2164:	e1a07003 	mov	r7, r3
    2168:	e1a05000 	mov	r5, r0
    216c:	e1a0a001 	mov	sl, r1
    2170:	e1a0b002 	mov	fp, r2
    2174:	e1cd82d8 	ldrd	r8, [sp, #40]	; 0x28
    2178:	8a00003d 	bhi	2274 <pcm_read+0x11c>
    217c:	ebfffffe 	bl	23e4 <_rdtsc>
    2180:	e1a02007 	mov	r2, r7
    2184:	e1a0100b 	mov	r1, fp
    2188:	e1a04000 	mov	r4, r0
    218c:	e1a0000a 	mov	r0, sl
    2190:	ebfffffe 	bl	174 <memory_copy>
    2194:	ebfffffe 	bl	23e4 <_rdtsc>
    2198:	e59f30e4 	ldr	r3, [pc, #228]	; 2284 <pcm_read+0x12c>
    219c:	e7933106 	ldr	r3, [r3, r6, lsl #2]
    21a0:	e1a07000 	mov	r7, r0
    21a4:	e0400004 	sub	r0, r0, r4
    21a8:	e1530000 	cmp	r3, r0
    21ac:	8a000007 	bhi	21d0 <pcm_read+0x78>
    21b0:	e59f30d0 	ldr	r3, [pc, #208]	; 2288 <pcm_read+0x130>
    21b4:	e7933106 	ldr	r3, [r3, r6, lsl #2]
    21b8:	e1530000 	cmp	r3, r0
    21bc:	2a00001a 	bcs	222c <pcm_read+0xd4>
    21c0:	e59f30c4 	ldr	r3, [pc, #196]	; 228c <pcm_read+0x134>
    21c4:	e7933106 	ldr	r3, [r3, r6, lsl #2]
    21c8:	e1530000 	cmp	r3, r0
    21cc:	9a000016 	bls	222c <pcm_read+0xd4>
    21d0:	e595300c 	ldr	r3, [r5, #12]
    21d4:	e2833001 	add	r3, r3, #1
    21d8:	e585300c 	str	r3, [r5, #12]
    21dc:	ebfffffe 	bl	23e4 <_rdtsc>
    21e0:	e59f60a8 	ldr	r6, [pc, #168]	; 2290 <pcm_read+0x138>
    21e4:	e5963000 	ldr	r3, [r6]
    21e8:	e1a04000 	mov	r4, r0
    21ec:	e5950004 	ldr	r0, [r5, #4]
    21f0:	e0447007 	sub	r7, r4, r7
    21f4:	e0400007 	sub	r0, r0, r7
    21f8:	e1500003 	cmp	r0, r3
    21fc:	e5850004 	str	r0, [r5, #4]
    2200:	b8bd8ff8 	poplt	{r3, r4, r5, r6, r7, r8, r9, sl, fp, pc}
    2204:	ebfffffe 	bl	23e4 <_rdtsc>
    2208:	e5953004 	ldr	r3, [r5, #4]
    220c:	e5962000 	ldr	r2, [r6]
    2210:	e0404004 	sub	r4, r0, r4
    2214:	e0433004 	sub	r3, r3, r4
    2218:	e1530002 	cmp	r3, r2
    221c:	e1a04000 	mov	r4, r0
    2220:	e5853004 	str	r3, [r5, #4]
    2224:	aafffff6 	bge	2204 <pcm_read+0xac>
    2228:	e8bd8ff8 	pop	{r3, r4, r5, r6, r7, r8, r9, sl, fp, pc}
    222c:	e59f3060 	ldr	r3, [pc, #96]	; 2294 <pcm_read+0x13c>
    2230:	e5952008 	ldr	r2, [r5, #8]
    2234:	e0836106 	add	r6, r3, r6, lsl #2
    2238:	e2823001 	add	r3, r2, #1
    223c:	e5853008 	str	r3, [r5, #8]
    2240:	e5952004 	ldr	r2, [r5, #4]
    2244:	e5960050 	ldr	r0, [r6, #80]	; 0x50
    2248:	e1a032a8 	lsr	r3, r8, #5
    224c:	e5951000 	ldr	r1, [r5]
    2250:	e1833d89 	orr	r3, r3, r9, lsl #27
    2254:	e0822000 	add	r2, r2, r0
    2258:	e5852004 	str	r2, [r5, #4]
    225c:	e208801f 	and	r8, r8, #31
    2260:	e7912103 	ldr	r2, [r1, r3, lsl #2]
    2264:	e3a00001 	mov	r0, #1
    2268:	e1c28810 	bic	r8, r2, r0, lsl r8
    226c:	e7818103 	str	r8, [r1, r3, lsl #2]
    2270:	eaffffd9 	b	21dc <pcm_read+0x84>
    2274:	e3a010f9 	mov	r1, #249	; 0xf9
    2278:	e59f0018 	ldr	r0, [pc, #24]	; 2298 <pcm_read+0x140>
    227c:	ebfffffe 	bl	0 <warn_slowpath_null>
    2280:	eaffffbd 	b	217c <pcm_read+0x24>
	...
    2294:	000006cc 	andeq	r0, r0, ip, asr #13
    2298:	000005d4 	ldrdeq	r0, [r0], -r4

0000229c <pcm_write>:
    229c:	e92d4ff8 	push	{r3, r4, r5, r6, r7, r8, r9, sl, fp, lr}
    22a0:	e1a054a3 	lsr	r5, r3, #9
    22a4:	e3550008 	cmp	r5, #8
    22a8:	e1a09003 	mov	r9, r3
    22ac:	e1a06000 	mov	r6, r0
    22b0:	e1a0a001 	mov	sl, r1
    22b4:	e1a0b002 	mov	fp, r2
    22b8:	e59d7028 	ldr	r7, [sp, #40]	; 0x28
    22bc:	e59d802c 	ldr	r8, [sp, #44]	; 0x2c
    22c0:	8a000039 	bhi	23ac <pcm_write+0x110>
    22c4:	ebfffffe 	bl	23e4 <_rdtsc>
    22c8:	e1a02009 	mov	r2, r9
    22cc:	e1a0100b 	mov	r1, fp
    22d0:	e1a04000 	mov	r4, r0
    22d4:	e1a0000a 	mov	r0, sl
    22d8:	ebfffffe 	bl	174 <memory_copy>
    22dc:	ebfffffe 	bl	23e4 <_rdtsc>
    22e0:	e59f30d4 	ldr	r3, [pc, #212]	; 23bc <pcm_write+0x120>
    22e4:	e7933105 	ldr	r3, [r3, r5, lsl #2]
    22e8:	e0400004 	sub	r0, r0, r4
    22ec:	e1530000 	cmp	r3, r0
    22f0:	9a00001f 	bls	2374 <pcm_write+0xd8>
    22f4:	e59f30c4 	ldr	r3, [pc, #196]	; 23c0 <pcm_write+0x124>
    22f8:	e2852009 	add	r2, r5, #9
    22fc:	e7933102 	ldr	r3, [r3, r2, lsl #2]
    2300:	e1530000 	cmp	r3, r0
    2304:	83a02001 	movhi	r2, #1
    2308:	93a02000 	movls	r2, #0
    230c:	93a00001 	movls	r0, #1
    2310:	83a00000 	movhi	r0, #0
    2314:	e0862102 	add	r2, r6, r2, lsl #2
    2318:	e1a032a7 	lsr	r3, r7, #5
    231c:	e5921010 	ldr	r1, [r2, #16]
    2320:	e1833d88 	orr	r3, r3, r8, lsl #27
    2324:	e2811001 	add	r1, r1, #1
    2328:	e5821010 	str	r1, [r2, #16]
    232c:	e596c000 	ldr	ip, [r6]
    2330:	e207701f 	and	r7, r7, #31
    2334:	e3a01001 	mov	r1, #1
    2338:	e79c2103 	ldr	r2, [ip, r3, lsl #2]
    233c:	e1a01711 	lsl	r1, r1, r7
    2340:	e1120001 	tst	r2, r1
    2344:	03a00001 	moveq	r0, #1
    2348:	e3500000 	cmp	r0, #0
    234c:	e1822001 	orr	r2, r2, r1
    2350:	e78c2103 	str	r2, [ip, r3, lsl #2]
    2354:	08bd8ff8 	popeq	{r3, r4, r5, r6, r7, r8, r9, sl, fp, pc}
    2358:	e59f2064 	ldr	r2, [pc, #100]	; 23c4 <pcm_write+0x128>
    235c:	e5963004 	ldr	r3, [r6, #4]
    2360:	e0825105 	add	r5, r2, r5, lsl #2
    2364:	e5952074 	ldr	r2, [r5, #116]	; 0x74
    2368:	e0833002 	add	r3, r3, r2
    236c:	e5863004 	str	r3, [r6, #4]
    2370:	e8bd8ff8 	pop	{r3, r4, r5, r6, r7, r8, r9, sl, fp, pc}
    2374:	e59f304c 	ldr	r3, [pc, #76]	; 23c8 <pcm_write+0x12c>
    2378:	e7933105 	ldr	r3, [r3, r5, lsl #2]
    237c:	e1530000 	cmp	r3, r0
    2380:	23a00001 	movcs	r0, #1
    2384:	23a02000 	movcs	r2, #0
    2388:	2affffe1 	bcs	2314 <pcm_write+0x78>
    238c:	e59f302c 	ldr	r3, [pc, #44]	; 23c0 <pcm_write+0x124>
    2390:	e7933105 	ldr	r3, [r3, r5, lsl #2]
    2394:	e1530000 	cmp	r3, r0
    2398:	93a00001 	movls	r0, #1
    239c:	83a00000 	movhi	r0, #0
    23a0:	83a02001 	movhi	r2, #1
    23a4:	93a02000 	movls	r2, #0
    23a8:	eaffffd9 	b	2314 <pcm_write+0x78>
    23ac:	e3001147 	movw	r1, #327	; 0x147
    23b0:	e59f0014 	ldr	r0, [pc, #20]	; 23cc <pcm_write+0x130>
    23b4:	ebfffffe 	bl	0 <warn_slowpath_null>
    23b8:	eaffffc1 	b	22c4 <pcm_write+0x28>
	...
    23c4:	000006cc 	andeq	r0, r0, ip, asr #13
    23c8:	00000000 	andeq	r0, r0, r0
    23cc:	000005d4 	ldrdeq	r0, [r0], -r4

000023d0 <get_ticks>:
    23d0:	f57ff06f 	isb	sy
    23d4:	ee191f1d 	mrc	15, 0, r1, cr9, cr13, {0}
    23d8:	e1a00301 	lsl	r0, r1, #6
    23dc:	e1a01d21 	lsr	r1, r1, #26
    23e0:	e12fff1e 	bx	lr

000023e4 <_rdtsc>:
    23e4:	ee191f1d 	mrc	15, 0, r1, cr9, cr13, {0}
    23e8:	e1a00301 	lsl	r0, r1, #6
    23ec:	e1a01d21 	lsr	r1, r1, #26
    23f0:	e12fff1e 	bx	lr

000023f4 <util_calibrate>:
    23f4:	e3a00000 	mov	r0, #0
    23f8:	e3a01080 	mov	r1, #128	; 0x80
    23fc:	f57ff06f 	isb	sy
    2400:	ee192f1d 	mrc	15, 0, r2, cr9, cr13, {0}
    2404:	f57ff06f 	isb	sy
    2408:	ee193f1d 	mrc	15, 0, r3, cr9, cr13, {0}
    240c:	e1a03303 	lsl	r3, r3, #6
    2410:	e1a02302 	lsl	r2, r2, #6
    2414:	e0533002 	subs	r3, r3, r2
    2418:	e2511001 	subs	r1, r1, #1
    241c:	e0800003 	add	r0, r0, r3
    2420:	1afffff5 	bne	23fc <util_calibrate+0x8>
    2424:	e59f3008 	ldr	r3, [pc, #8]	; 2434 <util_calibrate+0x40>
    2428:	e1a003a0 	lsr	r0, r0, #7
    242c:	e5830000 	str	r0, [r3]
    2430:	e12fff1e 	bx	lr
    2434:	00000764 	andeq	r0, r0, r4, ror #14

00002438 <sqrt32>:
    2438:	e3a03902 	mov	r3, #32768	; 0x8000
    243c:	e1a02003 	mov	r2, r3
    2440:	e3a01010 	mov	r1, #16
    2444:	ea000000 	b	244c <sqrt32+0x14>
    2448:	e1833002 	orr	r3, r3, r2
    244c:	e00c0393 	mul	ip, r3, r3
    2450:	e15c0000 	cmp	ip, r0
    2454:	80233002 	eorhi	r3, r3, r2
    2458:	e2511001 	subs	r1, r1, #1
    245c:	e1a020a2 	lsr	r2, r2, #1
    2460:	1afffff8 	bne	2448 <sqrt32+0x10>
    2464:	e1a00003 	mov	r0, r3
    2468:	e12fff1e 	bx	lr

0000246c <pcmsim_ioctl>:
    246c:	e3e00018 	mvn	r0, #24
    2470:	e12fff1e 	bx	lr

00002474 <pcmsim_make_request>:
    2474:	e92d4ff0 	push	{r4, r5, r6, r7, r8, r9, sl, fp, lr}
    2478:	e24dd034 	sub	sp, sp, #52	; 0x34
    247c:	e5916028 	ldr	r6, [r1, #40]	; 0x28
    2480:	e591c004 	ldr	ip, [r1, #4]
    2484:	e1a04001 	mov	r4, r1
    2488:	e58d1014 	str	r1, [sp, #20]
    248c:	e1c102d0 	ldrd	r0, [r1, #32]
    2490:	e1a0e4a6 	lsr	lr, r6, #9
    2494:	e59c2048 	ldr	r2, [ip, #72]	; 0x48
    2498:	e1cd00f8 	strd	r0, [sp, #8]
    249c:	e090000e 	adds	r0, r0, lr
    24a0:	e3a03000 	mov	r3, #0
    24a4:	e2a11000 	adc	r1, r1, #0
    24a8:	e1510003 	cmp	r1, r3
    24ac:	01500002 	cmpeq	r0, r2
    24b0:	8a00008c 	bhi	26e8 <pcmsim_make_request+0x274>
    24b4:	e5943008 	ldr	r3, [r4, #8]
    24b8:	e3560000 	cmp	r6, #0
    24bc:	e2033001 	and	r3, r3, #1
    24c0:	e58d302c 	str	r3, [sp, #44]	; 0x2c
    24c4:	e594a02c 	ldr	sl, [r4, #44]	; 0x2c
    24c8:	e5949034 	ldr	r9, [r4, #52]	; 0x34
    24cc:	0a000085 	beq	26e8 <pcmsim_make_request+0x274>
    24d0:	e59cb350 	ldr	fp, [ip, #848]	; 0x350
    24d4:	e1a0308a 	lsl	r3, sl, #1
    24d8:	e58d3018 	str	r3, [sp, #24]
    24dc:	e59d2014 	ldr	r2, [sp, #20]
    24e0:	e59d3018 	ldr	r3, [sp, #24]
    24e4:	e5921060 	ldr	r1, [r2, #96]	; 0x60
    24e8:	e59d2008 	ldr	r2, [sp, #8]
    24ec:	e083300a 	add	r3, r3, sl
    24f0:	e1a08482 	lsl	r8, r2, #9
    24f4:	e0812103 	add	r2, r1, r3, lsl #2
    24f8:	e7910103 	ldr	r0, [r1, r3, lsl #2]
    24fc:	e1c240d4 	ldrd	r4, [r2, #4]
    2500:	e58d0020 	str	r0, [sp, #32]
    2504:	e0444009 	sub	r4, r4, r9
    2508:	e1540006 	cmp	r4, r6
    250c:	21a04006 	movcs	r4, r6
    2510:	ebfffffe 	bl	0 <kmap_atomic>
    2514:	e0895005 	add	r5, r9, r5
    2518:	e59d302c 	ldr	r3, [sp, #44]	; 0x2c
    251c:	e58d001c 	str	r0, [sp, #28]
    2520:	e3530000 	cmp	r3, #0
    2524:	1a00004a 	bne	2654 <pcmsim_make_request+0x1e0>
    2528:	e59b3008 	ldr	r3, [fp, #8]
    252c:	e3540000 	cmp	r4, #0
    2530:	e0802005 	add	r2, r0, r5
    2534:	e0838008 	add	r8, r3, r8
    2538:	0a000012 	beq	2588 <pcmsim_make_request+0x114>
    253c:	e1a05004 	mov	r5, r4
    2540:	e1a07002 	mov	r7, r2
    2544:	e58d6024 	str	r6, [sp, #36]	; 0x24
    2548:	e58d9028 	str	r9, [sp, #40]	; 0x28
    254c:	e58d8010 	str	r8, [sp, #16]
    2550:	e1cd80d8 	ldrd	r8, [sp, #8]
    2554:	e3550a01 	cmp	r5, #4096	; 0x1000
    2558:	31a06005 	movcc	r6, r5
    255c:	23a06a01 	movcs	r6, #4096	; 0x1000
    2560:	e59b003c 	ldr	r0, [fp, #60]	; 0x3c
    2564:	e1a03006 	mov	r3, r6
    2568:	e1cd80f0 	strd	r8, [sp]
    256c:	e59d2010 	ldr	r2, [sp, #16]
    2570:	e1a01007 	mov	r1, r7
    2574:	ebfffffe 	bl	2158 <pcm_read>
    2578:	e0555006 	subs	r5, r5, r6
    257c:	1afffff3 	bne	2550 <pcmsim_make_request+0xdc>
    2580:	e59d6024 	ldr	r6, [sp, #36]	; 0x24
    2584:	e59d9028 	ldr	r9, [sp, #40]	; 0x28
    2588:	e59d0020 	ldr	r0, [sp, #32]
    258c:	ebfffffe 	bl	0 <flush_dcache_page>
    2590:	e59d001c 	ldr	r0, [sp, #28]
    2594:	ebfffffe 	bl	0 <__kunmap_atomic>
    2598:	e59d3014 	ldr	r3, [sp, #20]
    259c:	e1cd00d8 	ldrd	r0, [sp, #8]
    25a0:	e5932008 	ldr	r2, [r3, #8]
    25a4:	e1a034a4 	lsr	r3, r4, #9
    25a8:	e0900003 	adds	r0, r0, r3
    25ac:	e6ef3072 	uxtb	r3, r2
    25b0:	e2433005 	sub	r3, r3, #5
    25b4:	e2a11000 	adc	r1, r1, #0
    25b8:	e3c33004 	bic	r3, r3, #4
    25bc:	e20220fb 	and	r2, r2, #251	; 0xfb
    25c0:	e3530000 	cmp	r3, #0
    25c4:	13520003 	cmpne	r2, #3
    25c8:	e1cd00f8 	strd	r0, [sp, #8]
    25cc:	00466004 	subeq	r6, r6, r4
    25d0:	1a000004 	bne	25e8 <pcmsim_make_request+0x174>
    25d4:	e3560000 	cmp	r6, #0
    25d8:	0a000042 	beq	26e8 <pcmsim_make_request+0x274>
    25dc:	e1a0308a 	lsl	r3, sl, #1
    25e0:	e58d3018 	str	r3, [sp, #24]
    25e4:	eaffffbc 	b	24dc <pcmsim_make_request+0x68>
    25e8:	e1540006 	cmp	r4, r6
    25ec:	8a000033 	bhi	26c0 <pcmsim_make_request+0x24c>
    25f0:	e3540000 	cmp	r4, #0
    25f4:	0affffb8 	beq	24dc <pcmsim_make_request+0x68>
    25f8:	e59d3014 	ldr	r3, [sp, #20]
    25fc:	e59d2018 	ldr	r2, [sp, #24]
    2600:	e5931060 	ldr	r1, [r3, #96]	; 0x60
    2604:	ea000000 	b	260c <pcmsim_make_request+0x198>
    2608:	e1a0208a 	lsl	r2, sl, #1
    260c:	e082200a 	add	r2, r2, sl
    2610:	e1560004 	cmp	r6, r4
    2614:	e0812102 	add	r2, r1, r2, lsl #2
    2618:	21a00004 	movcs	r0, r4
    261c:	e5922004 	ldr	r2, [r2, #4]
    2620:	31a00006 	movcc	r0, r6
    2624:	e0423009 	sub	r3, r2, r9
    2628:	e1530000 	cmp	r3, r0
    262c:	21a03000 	movcs	r3, r0
    2630:	e0899003 	add	r9, r9, r3
    2634:	e1520009 	cmp	r2, r9
    2638:	e0444003 	sub	r4, r4, r3
    263c:	028aa001 	addeq	sl, sl, #1
    2640:	03a09000 	moveq	r9, #0
    2644:	e3540000 	cmp	r4, #0
    2648:	e0466003 	sub	r6, r6, r3
    264c:	1affffed 	bne	2608 <pcmsim_make_request+0x194>
    2650:	eaffffdf 	b	25d4 <pcmsim_make_request+0x160>
    2654:	e59d0020 	ldr	r0, [sp, #32]
    2658:	ebfffffe 	bl	0 <flush_dcache_page>
    265c:	e59b3008 	ldr	r3, [fp, #8]
    2660:	e3540000 	cmp	r4, #0
    2664:	e0838008 	add	r8, r3, r8
    2668:	e59d201c 	ldr	r2, [sp, #28]
    266c:	e0827005 	add	r7, r2, r5
    2670:	0affffc6 	beq	2590 <pcmsim_make_request+0x11c>
    2674:	e1a05004 	mov	r5, r4
    2678:	e58d6020 	str	r6, [sp, #32]
    267c:	e58d9024 	str	r9, [sp, #36]	; 0x24
    2680:	e58d8010 	str	r8, [sp, #16]
    2684:	e1cd80d8 	ldrd	r8, [sp, #8]
    2688:	e3550a01 	cmp	r5, #4096	; 0x1000
    268c:	31a06005 	movcc	r6, r5
    2690:	23a06a01 	movcs	r6, #4096	; 0x1000
    2694:	e59b003c 	ldr	r0, [fp, #60]	; 0x3c
    2698:	e1a03006 	mov	r3, r6
    269c:	e1cd80f0 	strd	r8, [sp]
    26a0:	e1a02007 	mov	r2, r7
    26a4:	e59d1010 	ldr	r1, [sp, #16]
    26a8:	ebfffffe 	bl	229c <pcm_write>
    26ac:	e0555006 	subs	r5, r5, r6
    26b0:	1afffff3 	bne	2684 <pcmsim_make_request+0x210>
    26b4:	e59d6020 	ldr	r6, [sp, #32]
    26b8:	e59d9024 	ldr	r9, [sp, #36]	; 0x24
    26bc:	eaffffb3 	b	2590 <pcmsim_make_request+0x11c>
    26c0:	e59f3034 	ldr	r3, [pc, #52]	; 26fc <pcmsim_make_request+0x288>
    26c4:	e5d32000 	ldrb	r2, [r3]
    26c8:	e3520000 	cmp	r2, #0
    26cc:	1a000005 	bne	26e8 <pcmsim_make_request+0x274>
    26d0:	e3a0c001 	mov	ip, #1
    26d4:	e59f2024 	ldr	r2, [pc, #36]	; 2700 <pcmsim_make_request+0x28c>
    26d8:	e3a0104c 	mov	r1, #76	; 0x4c
    26dc:	e59f0020 	ldr	r0, [pc, #32]	; 2704 <pcmsim_make_request+0x290>
    26e0:	e5c3c000 	strb	ip, [r3]
    26e4:	ebfffffe 	bl	0 <warn_slowpath_fmt>
    26e8:	e59d0014 	ldr	r0, [sp, #20]
    26ec:	ebfffffe 	bl	0 <bio_endio>
    26f0:	e3a00000 	mov	r0, #0
    26f4:	e28dd034 	add	sp, sp, #52	; 0x34
    26f8:	e8bd8ff0 	pop	{r4, r5, r6, r7, r8, r9, sl, fp, pc}
    26fc:	00000000 	andeq	r0, r0, r0
    2700:	00000600 	andeq	r0, r0, r0, lsl #12
    2704:	0000062c 	andeq	r0, r0, ip, lsr #12

00002708 <copy_to_pcmsim>:
    2708:	e92d47f0 	push	{r4, r5, r6, r7, r8, r9, sl, lr}
    270c:	e24dd008 	sub	sp, sp, #8
    2710:	e5906008 	ldr	r6, [r0, #8]
    2714:	e59d4028 	ldr	r4, [sp, #40]	; 0x28
    2718:	e0866482 	add	r6, r6, r2, lsl #9
    271c:	e3540000 	cmp	r4, #0
    2720:	0a00000e 	beq	2760 <copy_to_pcmsim+0x58>
    2724:	e1a08000 	mov	r8, r0
    2728:	e1a07002 	mov	r7, r2
    272c:	e1a0a001 	mov	sl, r1
    2730:	e1a09003 	mov	r9, r3
    2734:	e3540a01 	cmp	r4, #4096	; 0x1000
    2738:	31a05004 	movcc	r5, r4
    273c:	23a05a01 	movcs	r5, #4096	; 0x1000
    2740:	e88d0280 	stm	sp, {r7, r9}
    2744:	e1a03005 	mov	r3, r5
    2748:	e1a0200a 	mov	r2, sl
    274c:	e1a01006 	mov	r1, r6
    2750:	e598003c 	ldr	r0, [r8, #60]	; 0x3c
    2754:	ebfffffe 	bl	229c <pcm_write>
    2758:	e0544005 	subs	r4, r4, r5
    275c:	1afffff4 	bne	2734 <copy_to_pcmsim+0x2c>
    2760:	e28dd008 	add	sp, sp, #8
    2764:	e8bd87f0 	pop	{r4, r5, r6, r7, r8, r9, sl, pc}

00002768 <copy_from_pcmsim>:
    2768:	e92d47f0 	push	{r4, r5, r6, r7, r8, r9, sl, lr}
    276c:	e24dd008 	sub	sp, sp, #8
    2770:	e5916008 	ldr	r6, [r1, #8]
    2774:	e59d4028 	ldr	r4, [sp, #40]	; 0x28
    2778:	e0866482 	add	r6, r6, r2, lsl #9
    277c:	e3540000 	cmp	r4, #0
    2780:	0a00000e 	beq	27c0 <copy_from_pcmsim+0x58>
    2784:	e1a08001 	mov	r8, r1
    2788:	e1a07002 	mov	r7, r2
    278c:	e1a0a000 	mov	sl, r0
    2790:	e1a09003 	mov	r9, r3
    2794:	e3540a01 	cmp	r4, #4096	; 0x1000
    2798:	31a05004 	movcc	r5, r4
    279c:	23a05a01 	movcs	r5, #4096	; 0x1000
    27a0:	e88d0280 	stm	sp, {r7, r9}
    27a4:	e1a03005 	mov	r3, r5
    27a8:	e1a02006 	mov	r2, r6
    27ac:	e1a0100a 	mov	r1, sl
    27b0:	e598003c 	ldr	r0, [r8, #60]	; 0x3c
    27b4:	ebfffffe 	bl	2158 <pcm_read>
    27b8:	e0544005 	subs	r4, r4, r5
    27bc:	1afffff4 	bne	2794 <copy_from_pcmsim+0x2c>
    27c0:	e28dd008 	add	sp, sp, #8
    27c4:	e8bd87f0 	pop	{r4, r5, r6, r7, r8, r9, sl, pc}

000027c8 <pcmsim_alloc>:
    27c8:	e59f3138 	ldr	r3, [pc, #312]	; 2908 <pcmsim_alloc+0x140>
    27cc:	e92d41f0 	push	{r4, r5, r6, r7, r8, lr}
    27d0:	e3a02040 	mov	r2, #64	; 0x40
    27d4:	e1a06000 	mov	r6, r0
    27d8:	e1a05001 	mov	r5, r1
    27dc:	e5930018 	ldr	r0, [r3, #24]
    27e0:	e59f1124 	ldr	r1, [pc, #292]	; 290c <pcmsim_alloc+0x144>
    27e4:	ebfffffe 	bl	0 <kmem_cache_alloc_trace>
    27e8:	e2504000 	subs	r4, r0, #0
    27ec:	0a000037 	beq	28d0 <pcmsim_alloc+0x108>
    27f0:	e1a07585 	lsl	r7, r5, #11
    27f4:	e59f2114 	ldr	r2, [pc, #276]	; 2910 <pcmsim_alloc+0x148>
    27f8:	e59f1114 	ldr	r1, [pc, #276]	; 2914 <pcmsim_alloc+0x14c>
    27fc:	e284000c 	add	r0, r4, #12
    2800:	e1c460f0 	strd	r6, [r4]
    2804:	ebfffffe 	bl	0 <__raw_spin_lock_init>
    2808:	e5940004 	ldr	r0, [r4, #4]
    280c:	ebfffffe 	bl	20f4 <pcm_model_allocate>
    2810:	e3500000 	cmp	r0, #0
    2814:	e584003c 	str	r0, [r4, #60]	; 0x3c
    2818:	0a000035 	beq	28f4 <pcmsim_alloc+0x12c>
    281c:	e1a00a05 	lsl	r0, r5, #20
    2820:	ebfffffe 	bl	0 <vmalloc>
    2824:	e3500000 	cmp	r0, #0
    2828:	e5840008 	str	r0, [r4, #8]
    282c:	0a00002e 	beq	28ec <pcmsim_alloc+0x124>
    2830:	e59f00e0 	ldr	r0, [pc, #224]	; 2918 <pcmsim_alloc+0x150>
    2834:	ebfffffe 	bl	0 <blk_alloc_queue>
    2838:	e3500000 	cmp	r0, #0
    283c:	e584002c 	str	r0, [r4, #44]	; 0x2c
    2840:	0a000027 	beq	28e4 <pcmsim_alloc+0x11c>
    2844:	e59f10d0 	ldr	r1, [pc, #208]	; 291c <pcmsim_alloc+0x154>
    2848:	ebfffffe 	bl	0 <blk_queue_make_request>
    284c:	e3e02000 	mvn	r2, #0
    2850:	e3e03000 	mvn	r3, #0
    2854:	e594002c 	ldr	r0, [r4, #44]	; 0x2c
    2858:	ebfffffe 	bl	0 <blk_queue_bounce_limit>
    285c:	e3e01000 	mvn	r1, #0
    2860:	e3a00001 	mov	r0, #1
    2864:	ebfffffe 	bl	0 <__alloc_disk_node>
    2868:	e2505000 	subs	r5, r0, #0
    286c:	0a000019 	beq	28d8 <pcmsim_alloc+0x110>
    2870:	e3a03000 	mov	r3, #0
    2874:	e59f20a4 	ldr	r2, [pc, #164]	; 2920 <pcmsim_alloc+0x158>
    2878:	e59f10a4 	ldr	r1, [pc, #164]	; 2924 <pcmsim_alloc+0x15c>
    287c:	e2850fed 	add	r0, r5, #948	; 0x3b4
    2880:	ebfffffe 	bl	0 <lockdep_init_map>
    2884:	e59f109c 	ldr	r1, [pc, #156]	; 2928 <pcmsim_alloc+0x160>
    2888:	e5845030 	str	r5, [r4, #48]	; 0x30
    288c:	e3a020e7 	mov	r2, #231	; 0xe7
    2890:	e5953354 	ldr	r3, [r5, #852]	; 0x354
    2894:	e5852000 	str	r2, [r5]
    2898:	e5856004 	str	r6, [r5, #4]
    289c:	e5854350 	str	r4, [r5, #848]	; 0x350
    28a0:	e5851348 	str	r1, [r5, #840]	; 0x348
    28a4:	e594102c 	ldr	r1, [r4, #44]	; 0x2c
    28a8:	e3833020 	orr	r3, r3, #32
    28ac:	e5853354 	str	r3, [r5, #852]	; 0x354
    28b0:	e585134c 	str	r1, [r5, #844]	; 0x34c
    28b4:	e1a02006 	mov	r2, r6
    28b8:	e59f106c 	ldr	r1, [pc, #108]	; 292c <pcmsim_alloc+0x164>
    28bc:	e285000c 	add	r0, r5, #12
    28c0:	ebfffffe 	bl	0 <sprintf>
    28c4:	e3a03000 	mov	r3, #0
    28c8:	e5857048 	str	r7, [r5, #72]	; 0x48
    28cc:	e585304c 	str	r3, [r5, #76]	; 0x4c
    28d0:	e1a00004 	mov	r0, r4
    28d4:	e8bd81f0 	pop	{r4, r5, r6, r7, r8, pc}
    28d8:	e5845030 	str	r5, [r4, #48]	; 0x30
    28dc:	e594002c 	ldr	r0, [r4, #44]	; 0x2c
    28e0:	ebfffffe 	bl	0 <blk_cleanup_queue>
    28e4:	e5940008 	ldr	r0, [r4, #8]
    28e8:	ebfffffe 	bl	0 <vfree>
    28ec:	e594003c 	ldr	r0, [r4, #60]	; 0x3c
    28f0:	ebfffffe 	bl	0 <pcmsim_probe>
    28f4:	e1a00004 	mov	r0, r4
    28f8:	e3a04000 	mov	r4, #0
    28fc:	ebfffffe 	bl	0 <kfree>
    2900:	e1a00004 	mov	r0, r4
    2904:	e8bd81f0 	pop	{r4, r5, r6, r7, r8, pc}
    2908:	00000000 	andeq	r0, r0, r0
    290c:	006080c0 	rsbeq	r8, r0, r0, asr #1
    2910:	00000768 	andeq	r0, r0, r8, ror #14
    2914:	00000644 	andeq	r0, r0, r4, asr #12
    2918:	006000c0 	rsbeq	r0, r0, r0, asr #1
    291c:	00000000 	andeq	r0, r0, r0
    2920:	00000770 	andeq	r0, r0, r0, ror r7
    2924:	00000664 	andeq	r0, r0, r4, ror #12
    2928:	00000080 	andeq	r0, r0, r0, lsl #1
    292c:	00000688 	andeq	r0, r0, r8, lsl #13

00002930 <pcmsim_free>:
    2930:	e92d4010 	push	{r4, lr}
    2934:	e1a04000 	mov	r4, r0
    2938:	e5900030 	ldr	r0, [r0, #48]	; 0x30
    293c:	ebfffffe 	bl	0 <put_disk>
    2940:	e594002c 	ldr	r0, [r4, #44]	; 0x2c
    2944:	ebfffffe 	bl	0 <blk_cleanup_queue>
    2948:	e594003c 	ldr	r0, [r4, #60]	; 0x3c
    294c:	ebfffffe 	bl	0 <pcmsim_probe>
    2950:	e5940008 	ldr	r0, [r4, #8]
    2954:	e3500000 	cmp	r0, #0
    2958:	0a000000 	beq	2960 <pcmsim_free+0x30>
    295c:	ebfffffe 	bl	0 <vfree>
    2960:	e1a00004 	mov	r0, r4
    2964:	e8bd4010 	pop	{r4, lr}
    2968:	eafffffe 	b	0 <kfree>

Disassembly of section .init.text:

00000000 <init_module>:
   0:	e92d41f0 	push	{r4, r5, r6, r7, r8, lr}
   4:	e3a03001 	mov	r3, #1
   8:	e24dd008 	sub	sp, sp, #8
   c:	ee093f1e 	mcr	15, 0, r3, cr9, cr14, {0}
  10:	e3a03007 	mov	r3, #7
  14:	ee093f5e 	mcr	15, 0, r3, cr9, cr14, {2}
  18:	e3a0313e 	mov	r3, #-2147483633	; 0x8000000f
  1c:	ee093f1c 	mcr	15, 0, r3, cr9, cr12, {0}
  20:	ee093f3c 	mcr	15, 0, r3, cr9, cr12, {1}
  24:	ee093f7c 	mcr	15, 0, r3, cr9, cr12, {3}
  28:	ebfffffe 	bl	23f4 <util_calibrate>
  2c:	ebfffffe 	bl	2f4 <memory_calibrate>
  30:	ebfffffe 	bl	1dfc <pcm_calibrate>
  34:	e59f112c 	ldr	r1, [pc, #300]	; 168 <init_module+0x168>
  38:	e3a000e7 	mov	r0, #231	; 0xe7
  3c:	ebfffffe 	bl	0 <register_blkdev>
  40:	e2506000 	subs	r6, r0, #0
  44:	13e06004 	mvnne	r6, #4
  48:	1a000043 	bne	15c <init_module+0x15c>
  4c:	e59f4118 	ldr	r4, [pc, #280]	; 16c <init_module+0x16c>
  50:	e1a07006 	mov	r7, r6
  54:	e2845044 	add	r5, r4, #68	; 0x44
  58:	e1a08004 	mov	r8, r4
  5c:	e5943050 	ldr	r3, [r4, #80]	; 0x50
  60:	e1a00007 	mov	r0, r7
  64:	e1530007 	cmp	r3, r7
  68:	e2877001 	add	r7, r7, #1
  6c:	da000010 	ble	b4 <init_module+0xb4>
  70:	e594104c 	ldr	r1, [r4, #76]	; 0x4c
  74:	ebfffffe 	bl	27c8 <pcmsim_alloc>
  78:	e3500000 	cmp	r0, #0
  7c:	e2802034 	add	r2, r0, #52	; 0x34
  80:	1a000005 	bne	9c <init_module+0x9c>
  84:	e5943044 	ldr	r3, [r4, #68]	; 0x44
  88:	e3a07c01 	mov	r7, #256	; 0x100
  8c:	e3a06c02 	mov	r6, #512	; 0x200
  90:	e4134034 	ldr	r4, [r3], #-52	; 0xffffffcc
  94:	e2444034 	sub	r4, r4, #52	; 0x34
  98:	ea00001c 	b	110 <init_module+0x110>
  9c:	e5943048 	ldr	r3, [r4, #72]	; 0x48
  a0:	e5805034 	str	r5, [r0, #52]	; 0x34
  a4:	e5803038 	str	r3, [r0, #56]	; 0x38
  a8:	e5842048 	str	r2, [r4, #72]	; 0x48
  ac:	e5832000 	str	r2, [r3]
  b0:	eaffffe9 	b	5c <init_module+0x5c>
  b4:	e5944044 	ldr	r4, [r4, #68]	; 0x44
  b8:	e2444034 	sub	r4, r4, #52	; 0x34
  bc:	e2843034 	add	r3, r4, #52	; 0x34
  c0:	e1530005 	cmp	r3, r5
  c4:	e3a00000 	mov	r0, #0
  c8:	0a000004 	beq	e0 <init_module+0xe0>
  cc:	e5941030 	ldr	r1, [r4, #48]	; 0x30
  d0:	ebfffffe 	bl	0 <device_add_disk>
  d4:	e5944034 	ldr	r4, [r4, #52]	; 0x34
  d8:	e2444034 	sub	r4, r4, #52	; 0x34
  dc:	eafffff6 	b	bc <init_module+0xbc>
  e0:	e5981050 	ldr	r1, [r8, #80]	; 0x50
  e4:	e59f3084 	ldr	r3, [pc, #132]	; 170 <init_module+0x170>
  e8:	e1510000 	cmp	r1, r0
  ec:	03a01702 	moveq	r1, #524288	; 0x80000
  f0:	e58d0004 	str	r0, [sp, #4]
  f4:	e58d0000 	str	r0, [sp]
  f8:	e59f2074 	ldr	r2, [pc, #116]	; 174 <init_module+0x174>
  fc:	e3a006e7 	mov	r0, #242221056	; 0xe700000
 100:	ebfffffe 	bl	0 <blk_register_region>
 104:	e59f006c 	ldr	r0, [pc, #108]	; 178 <init_module+0x178>
 108:	ebfffffe 	bl	0 <printk>
 10c:	ea000012 	b	15c <init_module+0x15c>
 110:	e2832034 	add	r2, r3, #52	; 0x34
 114:	e1520005 	cmp	r2, r5
 118:	e1a00003 	mov	r0, r3
 11c:	0a00000a 	beq	14c <init_module+0x14c>
 120:	e5932038 	ldr	r2, [r3, #56]	; 0x38
 124:	e5931034 	ldr	r1, [r3, #52]	; 0x34
 128:	e5812004 	str	r2, [r1, #4]
 12c:	e5821000 	str	r1, [r2]
 130:	e5837034 	str	r7, [r3, #52]	; 0x34
 134:	e5836038 	str	r6, [r3, #56]	; 0x38
 138:	ebfffffe 	bl	2930 <pcmsim_free>
 13c:	e5942034 	ldr	r2, [r4, #52]	; 0x34
 140:	e1a03004 	mov	r3, r4
 144:	e2424034 	sub	r4, r2, #52	; 0x34
 148:	eafffff0 	b	110 <init_module+0x110>
 14c:	e59f1014 	ldr	r1, [pc, #20]	; 168 <init_module+0x168>
 150:	e3a000e7 	mov	r0, #231	; 0xe7
 154:	ebfffffe 	bl	0 <unregister_blkdev>
 158:	e3e0600b 	mvn	r6, #11
 15c:	e1a00006 	mov	r0, r6
 160:	e28dd008 	add	sp, sp, #8
 164:	e8bd81f0 	pop	{r4, r5, r6, r7, r8, pc}
	...
 178:	00000008 	andeq	r0, r0, r8

Disassembly of section .exit.text:

00000000 <cleanup_module>:
   0:	e59f3080 	ldr	r3, [pc, #128]	; 88 <cleanup_module+0x88>
   4:	e92d47f0 	push	{r4, r5, r6, r7, r8, r9, sl, lr}
   8:	e1a07003 	mov	r7, r3
   c:	e5936050 	ldr	r6, [r3, #80]	; 0x50
  10:	e5b74044 	ldr	r4, [r7, #68]!	; 0x44
  14:	e3560000 	cmp	r6, #0
  18:	e3a09c01 	mov	r9, #256	; 0x100
  1c:	e4145034 	ldr	r5, [r4], #-52	; 0xffffffcc
  20:	03a06702 	moveq	r6, #524288	; 0x80000
  24:	e3a08c02 	mov	r8, #512	; 0x200
  28:	e2455034 	sub	r5, r5, #52	; 0x34
  2c:	e2843034 	add	r3, r4, #52	; 0x34
  30:	e1530007 	cmp	r3, r7
  34:	0a00000c 	beq	6c <cleanup_module+0x6c>
  38:	e1c423d4 	ldrd	r2, [r4, #52]	; 0x34
  3c:	e5823004 	str	r3, [r2, #4]
  40:	e5832000 	str	r2, [r3]
  44:	e5849034 	str	r9, [r4, #52]	; 0x34
  48:	e5940030 	ldr	r0, [r4, #48]	; 0x30
  4c:	e5848038 	str	r8, [r4, #56]	; 0x38
  50:	ebfffffe 	bl	0 <del_gendisk>
  54:	e1a00004 	mov	r0, r4
  58:	ebfffffe 	bl	2930 <pcmsim_free>
  5c:	e5953034 	ldr	r3, [r5, #52]	; 0x34
  60:	e1a04005 	mov	r4, r5
  64:	e2435034 	sub	r5, r3, #52	; 0x34
  68:	eaffffef 	b	2c <cleanup_module+0x2c>
  6c:	e1a01006 	mov	r1, r6
  70:	e3a006e7 	mov	r0, #242221056	; 0xe700000
  74:	ebfffffe 	bl	0 <blk_unregister_region>
  78:	e59f100c 	ldr	r1, [pc, #12]	; 8c <cleanup_module+0x8c>
  7c:	e3a000e7 	mov	r0, #231	; 0xe7
  80:	e8bd47f0 	pop	{r4, r5, r6, r7, r8, r9, sl, lr}
  84:	eafffffe 	b	0 <unregister_blkdev>
	...

Disassembly of section .text.unlikely:

00000000 <pcm_model_free>:
   0:	e92d47f0 	push	{r4, r5, r6, r7, r8, r9, sl, lr}
   4:	e1a04000 	mov	r4, r0
   8:	e590300c 	ldr	r3, [r0, #12]
   c:	e5906008 	ldr	r6, [r0, #8]
  10:	e0936006 	adds	r6, r3, r6
  14:	01a07006 	moveq	r7, r6
  18:	0a000004 	beq	30 <pcm_model_free+0x30>
  1c:	e3020710 	movw	r0, #10000	; 0x2710
  20:	e1a01006 	mov	r1, r6
  24:	e0000390 	mul	r0, r0, r3
  28:	ebfffffe 	bl	0 <__aeabi_uidiv>
  2c:	e1a07000 	mov	r7, r0
  30:	e5943014 	ldr	r3, [r4, #20]
  34:	e5945010 	ldr	r5, [r4, #16]
  38:	e0935005 	adds	r5, r3, r5
  3c:	01a08005 	moveq	r8, r5
  40:	0a000004 	beq	58 <pcm_model_free+0x58>
  44:	e3020710 	movw	r0, #10000	; 0x2710
  48:	e1a01005 	mov	r1, r5
  4c:	e0000390 	mul	r0, r0, r3
  50:	ebfffffe 	bl	0 <__aeabi_uidiv>
  54:	e1a08000 	mov	r8, r0
  58:	e59f0078 	ldr	r0, [pc, #120]	; d8 <pcm_model_free+0xd8>
  5c:	ebfffffe 	bl	0 <printk>
  60:	e59f0074 	ldr	r0, [pc, #116]	; dc <pcm_model_free+0xdc>
  64:	ebfffffe 	bl	0 <printk>
  68:	e59f0070 	ldr	r0, [pc, #112]	; e0 <pcm_model_free+0xe0>
  6c:	ebfffffe 	bl	0 <printk>
  70:	e59f0060 	ldr	r0, [pc, #96]	; d8 <pcm_model_free+0xd8>
  74:	ebfffffe 	bl	0 <printk>
  78:	e1a00007 	mov	r0, r7
  7c:	e3a01064 	mov	r1, #100	; 0x64
  80:	ebfffffe 	bl	0 <__aeabi_uidivmod>
  84:	e59f9058 	ldr	r9, [pc, #88]	; e4 <pcm_model_free+0xe4>
  88:	e59f0058 	ldr	r0, [pc, #88]	; e8 <pcm_model_free+0xe8>
  8c:	e0832997 	umull	r2, r3, r7, r9
  90:	e1a022a3 	lsr	r2, r3, #5
  94:	e1a03001 	mov	r3, r1
  98:	e1a01006 	mov	r1, r6
  9c:	ebfffffe 	bl	0 <printk>
  a0:	e0832998 	umull	r2, r3, r8, r9
  a4:	e59f0040 	ldr	r0, [pc, #64]	; ec <pcm_model_free+0xec>
  a8:	e3a0c064 	mov	ip, #100	; 0x64
  ac:	e1a022a3 	lsr	r2, r3, #5
  b0:	e1a01005 	mov	r1, r5
  b4:	e063829c 	mls	r3, ip, r2, r8
  b8:	ebfffffe 	bl	0 <printk>
  bc:	e59f0014 	ldr	r0, [pc, #20]	; d8 <pcm_model_free+0xd8>
  c0:	ebfffffe 	bl	0 <printk>
  c4:	e5940000 	ldr	r0, [r4]
  c8:	ebfffffe 	bl	0 <kfree>
  cc:	e1a00004 	mov	r0, r4
  d0:	e8bd47f0 	pop	{r4, r5, r6, r7, r8, r9, sl, lr}
  d4:	eafffffe 	b	0 <kfree>
  d8:	00000480 	andeq	r0, r0, r0, lsl #9
  dc:	0000054c 	andeq	r0, r0, ip, asr #10
  e0:	00000564 	andeq	r0, r0, r4, ror #10
  e4:	51eb851f 	mvnpl	r8, pc, lsl r5
  e8:	0000057c 	andeq	r0, r0, ip, ror r5
  ec:	000005a8 	andeq	r0, r0, r8, lsr #11

Disassembly of section .modinfo:

00000000 <__UNIQUE_ID_alias46>:
   0:	61696c61 	cmnvs	r9, r1, ror #24
   4:	63703d73 	cmnvs	r0, #7360	; 0x1cc0
   8:	 	stclvs	0, cr0, [r1], #-436	; 0xfffffe4c

0000000a <__UNIQUE_ID_alias45>:
   a:	61696c61 	cmnvs	r9, r1, ror #24
   e:	6c623d73 	stclvs	13, cr3, [r2], #-460	; 0xfffffe34
  12:	2d6b636f 	stclcs	3, cr6, [fp, #-444]!	; 0xfffffe44
  16:	6f6a616d 	svcvs	0x006a616d
  1a:	33322d72 	teqcc	r2, #7296	; 0x1c80
  1e:	002a2d31 	eoreq	r2, sl, r1, lsr sp

00000022 <__UNIQUE_ID_license44>:
  22:	6563696c 	strbvs	r6, [r3, #-2412]!	; 0xfffff694
  26:	3d65736e 	stclcc	3, cr7, [r5, #-440]!	; 0xfffffe48
  2a:	004c5047 	subeq	r5, ip, r7, asr #32

0000002e <__UNIQUE_ID_pcmsim_capacity_mb43>:
  2e:	6d726170 	ldfvse	f6, [r2, #-448]!	; 0xfffffe40
  32:	6d63703d 	stclvs	0, cr7, [r3, #-244]!	; 0xffffff0c
  36:	5f6d6973 	svcpl	0x006d6973
  3a:	61706163 	cmnvs	r0, r3, ror #2
  3e:	79746963 	ldmdbvc	r4!, {r0, r1, r5, r6, r8, fp, sp, lr}^
  42:	3a626d5f 	bcc	189b5c6 <pcmsim_free+0x1898c96>
  46:	657a6953 	ldrbvs	r6, [sl, #-2387]!	; 0xfffff6ad
  4a:	20666f20 	rsbcs	r6, r6, r0, lsr #30
  4e:	68636165 	stmdavs	r3!, {r0, r2, r5, r6, r8, sp, lr}^
  52:	4d435020 	stclmi	0, cr5, [r3, #-128]	; 0xffffff80
  56:	73696420 	cmnvc	r9, #32, 8	; 0x20000000
  5a:	6e69206b 	cdpvs	0, 6, cr2, cr9, cr11, {3}
  5e:	00424d20 	subeq	r4, r2, r0, lsr #26

00000062 <__UNIQUE_ID_pcmsim_capacity_mbtype42>:
  62:	6d726170 	ldfvse	f6, [r2, #-448]!	; 0xfffffe40
  66:	65707974 	ldrbvs	r7, [r0, #-2420]!	; 0xfffff68c
  6a:	6d63703d 	stclvs	0, cr7, [r3, #-244]!	; 0xffffff0c
  6e:	5f6d6973 	svcpl	0x006d6973
  72:	61706163 	cmnvs	r0, r3, ror #2
  76:	79746963 	ldmdbvc	r4!, {r0, r1, r5, r6, r8, fp, sp, lr}^
  7a:	3a626d5f 	bcc	189b5fe <pcmsim_free+0x1898cce>
  7e:	00746e69 	rsbseq	r6, r4, r9, ror #28

00000082 <__UNIQUE_ID_rd_nr41>:
  82:	6d726170 	ldfvse	f6, [r2, #-448]!	; 0xfffffe40
  86:	5f64723d 	svcpl	0x0064723d
  8a:	4d3a726e 	lfmmi	f7, 4, [sl, #-440]!	; 0xfffffe48
  8e:	6d697861 	stclvs	8, cr7, [r9, #-388]!	; 0xfffffe7c
  92:	6e206d75 	mcrvs	13, 1, r6, cr0, cr5, {3}
  96:	65626d75 	strbvs	r6, [r2, #-3445]!	; 0xfffff28b
  9a:	666f2072 			; <UNDEFINED> instruction: 0x666f2072
  9e:	6d697320 	stclvs	3, cr7, [r9, #-128]!	; 0xffffff80
  a2:	74616c75 	strbtvc	r6, [r1], #-3189	; 0xfffff38b
  a6:	50206465 	eorpl	r6, r0, r5, ror #8
  aa:	64204d43 	strtvs	r4, [r0], #-3395	; 0xfffff2bd
  ae:	63697665 	cmnvs	r9, #105906176	; 0x6500000
  b2:	 	andvc	r7, r0, r5, ror #6

000000b5 <__UNIQUE_ID_pcmsim_num_devicestype40>:
  b5:	6d726170 	ldfvse	f6, [r2, #-448]!	; 0xfffffe40
  b9:	65707974 	ldrbvs	r7, [r0, #-2420]!	; 0xfffff68c
  bd:	6d63703d 	stclvs	0, cr7, [r3, #-244]!	; 0xffffff0c
  c1:	5f6d6973 	svcpl	0x006d6973
  c5:	5f6d756e 	svcpl	0x006d756e
  c9:	69766564 	ldmdbvs	r6!, {r2, r5, r6, r8, sl, sp, lr}^
  cd:	3a736563 	bcc	1cd9661 <pcmsim_free+0x1cd6d31>
  d1:	00746e69 	rsbseq	r6, r4, r9, ror #28
  d5:	 	movwvc	r0, #0

000000d8 <__UNIQUE_ID_srcversion12>:
  d8:	76637273 			; <UNDEFINED> instruction: 0x76637273
  dc:	69737265 	ldmdbvs	r3!, {r0, r2, r5, r6, r9, ip, sp, lr}^
  e0:	303d6e6f 	eorscc	r6, sp, pc, ror #28
  e4:	41443538 	cmpmi	r4, r8, lsr r5
  e8:	46434243 	strbmi	r4, [r3], -r3, asr #4
  ec:	44444437 	strbmi	r4, [r4], #-1079	; 0xfffffbc9
  f0:	41363634 	teqmi	r6, r4, lsr r6
  f4:	32434638 	subcc	r4, r3, #56, 12	; 0x3800000
  f8:	00004336 	andeq	r4, r0, r6, lsr r3

000000fc <__module_depends>:
  fc:	65706564 	ldrbvs	r6, [r0, #-1380]!	; 0xfffffa9c
 100:	3d73646e 	cfldrdcc	mvd6, [r3, #-440]!	; 0xfffffe48
	...

00000105 <__UNIQUE_ID_name11>:
 105:	656d616e 	strbvs	r6, [sp, #-366]!	; 0xfffffe92
 109:	6d63703d 	stclvs	0, cr7, [r3, #-244]!	; 0xffffff0c
 10d:	006d6973 	rsbeq	r6, sp, r3, ror r9

00000111 <__UNIQUE_ID_vermagic10>:
 111:	6d726576 	cfldr64vs	mvdx6, [r2, #-472]!	; 0xfffffe28
 115:	63696761 	cmnvs	r9, #25427968	; 0x1840000
 119:	312e343d 			; <UNDEFINED> instruction: 0x312e343d
 11d:	36332e39 			; <UNDEFINED> instruction: 0x36332e39
 121:	504d5320 	subpl	r5, sp, r0, lsr #6
 125:	646f6d20 	strbtvs	r6, [pc], #-3360	; 12d <__UNIQUE_ID_vermagic10+0x1c>
 129:	6c6e755f 	cfstr64vs	mvdx7, [lr], #-380	; 0xfffffe84
 12d:	2064616f 	rsbcs	r6, r4, pc, ror #2
 131:	76646f6d 	strbtvc	r6, [r4], -sp, ror #30
 135:	69737265 	ldmdbvs	r3!, {r0, r2, r5, r6, r9, ip, sp, lr}^
 139:	20736e6f 	rsbscs	r6, r3, pc, ror #28
 13d:	764d5241 	strbvc	r5, [sp], -r1, asr #4
 141:	32702036 	rsbscc	r2, r0, #54	; 0x36
 145:	00203876 	eoreq	r3, r0, r6, ror r8

Disassembly of section __param:

00000000 <__param_pcmsim_capacity_mb>:
	...
   c:	00ff0000 	rscseq	r0, pc, r0
  10:	0000004c 	andeq	r0, r0, ip, asr #32

00000014 <__param_pcmsim_num_devices>:
  14:	00000014 	andeq	r0, r0, r4, lsl r0
	...
  20:	00ff0000 	rscseq	r0, pc, r0
  24:	00000050 	andeq	r0, r0, r0, asr r0

Disassembly of section __versions:

00000000 <____versions>:
   0:	13c25328 	bicne	r5, r2, #40, 6	; 0xa0000000
   4:	75646f6d 	strbvc	r6, [r4, #-3949]!	; 0xfffff093
   8:	6c5f656c 	cfldr64vs	mvdx6, [pc], {108}	; 0x6c
   c:	756f7961 	strbvc	r7, [pc, #-2401]!	; fffff6b3 <pcmsim_free+0xffffcd83>
  10:	00000074 	andeq	r0, r0, r4, ror r0
	...
  40:	c87323bb 	ldmdagt	r3!, {r0, r1, r3, r4, r5, r7, r8, r9, sp}^
  44:	6c616d6b 	stclvs	13, cr6, [r1], #-428	; 0xfffffe54
  48:	5f636f6c 	svcpl	0x00636f6c
  4c:	68636163 	stmdavs	r3!, {r0, r1, r5, r6, r8, sp, lr}^
  50:	00007365 	andeq	r7, r0, r5, ror #6
	...
  80:	12da5bb2 	sbcsne	r5, sl, #182272	; 0x2c800
  84:	6d6b5f5f 	stclvs	15, cr5, [fp, #-380]!	; 0xfffffe84
  88:	6f6c6c61 	svcvs	0x006c6c61
  8c:	00000063 	andeq	r0, r0, r3, rrx
	...
  c0:	cfc6b6a7 	svcgt	0x00c6b6a7
  c4:	5f6b6c62 	svcpl	0x006b6c62
  c8:	61656c63 	cmnvs	r5, r3, ror #24
  cc:	5f70756e 	svcpl	0x0070756e
  d0:	75657571 	strbvc	r7, [r5, #-1393]!	; 0xfffffa8f
  d4:	00000065 	andeq	r0, r0, r5, rrx
	...
 100:	d6ee688f 	strbtle	r6, [lr], pc, lsl #17
 104:	6c616d76 	stclvs	13, cr6, [r1], #-472	; 0xfffffe28
 108:	00636f6c 	rsbeq	r6, r3, ip, ror #30
	...
 140:	4cb8076a 	ldcmi	7, cr0, [r8], #424	; 0x1a8
 144:	61726170 	cmnvs	r2, r0, ror r1
 148:	706f5f6d 	rsbvc	r5, pc, sp, ror #30
 14c:	6e695f73 	mcrvs	15, 3, r5, cr9, cr3, {3}
 150:	00000074 	andeq	r0, r0, r4, ror r0
	...
 180:	5c4265f6 	cfstr64pl	mvdx6, [r2], {246}	; 0xf6
 184:	5f6b6c62 	svcpl	0x006b6c62
 188:	65726e75 	ldrbvs	r6, [r2, #-3701]!	; 0xfffff18b
 18c:	74736967 	ldrbtvc	r6, [r3], #-2407	; 0xfffff699
 190:	725f7265 	subsvc	r7, pc, #1342177286	; 0x50000006
 194:	6f696765 	svcvs	0x00696765
 198:	0000006e 	andeq	r0, r0, lr, rrx
	...
 1c0:	f7802486 			; <UNDEFINED> instruction: 0xf7802486
 1c4:	65615f5f 	strbvs	r5, [r1, #-3935]!	; 0xfffff0a1
 1c8:	5f696261 	svcpl	0x00696261
 1cc:	69646975 	stmdbvs	r4!, {r0, r2, r4, r5, r6, r8, fp, sp, lr}^
 1d0:	646f6d76 	strbtvs	r6, [pc], #-3446	; 1d8 <____versions+0x1d8>
	...
 200:	9758bcac 	ldrbls	fp, [r8, -ip, lsr #25]
 204:	6574756d 	ldrbvs	r7, [r4, #-1389]!	; 0xfffffa93
 208:	6e755f78 	mrcvs	15, 3, r5, cr5, cr8, {3}
 20c:	6b636f6c 	blvs	18dbfc4 <pcmsim_free+0x18d9694>
	...
 240:	999e8297 	ldmibls	lr, {r0, r1, r2, r4, r7, r9, pc}
 244:	65726676 	ldrbvs	r6, [r2, #-1654]!	; 0xfffff98a
 248:	00000065 	andeq	r0, r0, r5, rrx
	...
 280:	91715312 	cmnls	r1, r2, lsl r3
 284:	69727073 	ldmdbvs	r2!, {r0, r1, r4, r5, r6, ip, sp, lr}^
 288:	0066746e 	rsbeq	r7, r6, lr, ror #8
	...
 2c0:	50cb538e 	sbcpl	r5, fp, lr, lsl #7
 2c4:	6c615f5f 	stclvs	15, cr5, [r1], #-380	; 0xfffffe84
 2c8:	5f636f6c 	svcpl	0x00636f6c
 2cc:	6b736964 	blvs	1cda864 <pcmsim_free+0x1cd7f34>
 2d0:	646f6e5f 	strbtvs	r6, [pc], #-3679	; 2d8 <____versions+0x2d8>
 2d4:	00000065 	andeq	r0, r0, r5, rrx
	...
 300:	e707d823 	str	sp, [r7, -r3, lsr #16]
 304:	65615f5f 	strbvs	r5, [r1, #-3935]!	; 0xfffff0a1
 308:	5f696261 	svcpl	0x00696261
 30c:	69646975 	stmdbvs	r4!, {r0, r2, r4, r5, r6, r8, fp, sp, lr}^
 310:	00000076 	andeq	r0, r0, r6, ror r0
	...
 340:	eba9e204 	bl	fea78b58 <pcmsim_free+0xfea76228>
 344:	70616d6b 	rsbvc	r6, r1, fp, ror #26
 348:	6f74615f 	svcvs	0x0074615f
 34c:	0063696d 	rsbeq	r6, r3, sp, ror #18
	...
 380:	5f754e5a 	svcpl	0x00754e5a
 384:	736d656d 	cmnvc	sp, #457179136	; 0x1b400000
 388:	00007465 	andeq	r7, r0, r5, ror #8
	...
 3c0:	b8acfa10 	stmialt	ip!, {r4, r9, fp, ip, sp, lr, pc}
 3c4:	5f6b6c62 	svcpl	0x006b6c62
 3c8:	6f6c6c61 	svcvs	0x006c6c61
 3cc:	75715f63 	ldrbvc	r5, [r1, #-3939]!	; 0xfffff09d
 3d0:	00657565 	rsbeq	r7, r5, r5, ror #10
	...
 400:	7c32d0f0 	ldcvc	0, cr13, [r2], #-960	; 0xfffffc40
 404:	6e697270 	mcrvs	2, 3, r7, cr9, cr0, {3}
 408:	00006b74 	andeq	r6, r0, r4, ror fp
	...
 440:	7c6366c2 	stclvc	6, cr6, [r3], #-776	; 0xfffffcf8
 444:	5f6c6564 	svcpl	0x006c6564
 448:	646e6567 	strbtvs	r6, [lr], #-1383	; 0xfffffa99
 44c:	006b7369 	rsbeq	r7, fp, r9, ror #6
	...
 480:	12162ccb 	andsne	r2, r6, #51968	; 0xcb00
 484:	5f6b6c62 	svcpl	0x006b6c62
 488:	69676572 	stmdbvs	r7!, {r1, r4, r5, r6, r8, sl, sp, lr}^
 48c:	72657473 	rsbvc	r7, r5, #1929379840	; 0x73000000
 490:	6765725f 			; <UNDEFINED> instruction: 0x6765725f
 494:	006e6f69 	rsbeq	r6, lr, r9, ror #30
	...
 4c0:	16305289 	ldrtne	r5, [r0], -r9, lsl #5
 4c4:	6e726177 	mrcvs	1, 3, r6, cr2, cr7, {3}
 4c8:	6f6c735f 	svcvs	0x006c735f
 4cc:	74617077 	strbtvc	r7, [r1], #-119	; 0xffffff89
 4d0:	756e5f68 	strbvc	r5, [lr, #-3944]!	; 0xfffff098
 4d4:	00006c6c 	andeq	r6, r0, ip, ror #24
	...
 500:	ed93f29e 	lfm	f7, 1, [r3, #632]	; 0x278
 504:	756b5f5f 	strbvc	r5, [fp, #-3935]!	; 0xfffff0a1
 508:	70616d6e 	rsbvc	r6, r1, lr, ror #26
 50c:	6f74615f 	svcvs	0x0074615f
 510:	0063696d 	rsbeq	r6, r3, sp, ror #18
	...
 540:	71a50dbc 			; <UNDEFINED> instruction: 0x71a50dbc
 544:	69676572 	stmdbvs	r7!, {r1, r4, r5, r6, r8, sl, sp, lr}^
 548:	72657473 	rsbvc	r7, r5, #1929379840	; 0x73000000
 54c:	6b6c625f 	blvs	1b18ed0 <pcmsim_free+0x1b165a0>
 550:	00766564 	rsbseq	r6, r6, r4, ror #10
	...
 580:	85195b6a 	ldrhi	r5, [r9, #-2922]	; 0xfffff496
 584:	5f6f6962 	svcpl	0x006f6962
 588:	69646e65 	stmdbvs	r4!, {r0, r2, r5, r6, r9, sl, fp, sp, lr}^
 58c:	0000006f 	andeq	r0, r0, pc, rrx
	...
 5c0:	b5a459dc 	strlt	r5, [r4, #2524]!	; 0x9dc
 5c4:	65726e75 	ldrbvs	r6, [r2, #-3701]!	; 0xfffff18b
 5c8:	74736967 	ldrbtvc	r6, [r3], #-2407	; 0xfffff699
 5cc:	625f7265 	subsvs	r7, pc, #1342177286	; 0x50000006
 5d0:	65646b6c 	strbvs	r6, [r4, #-2924]!	; 0xfffff494
 5d4:	00000076 	andeq	r0, r0, r6, ror r0
	...
 600:	b7b8d7fe 			; <UNDEFINED> instruction: 0xb7b8d7fe
 604:	5f6b6c62 	svcpl	0x006b6c62
 608:	75657571 	strbvc	r7, [r5, #-1393]!	; 0xfffffa8f
 60c:	6f625f65 	svcvs	0x00625f65
 610:	65636e75 	strbvs	r6, [r3, #-3701]!	; 0xfffff18b
 614:	6d696c5f 	stclvs	12, cr6, [r9, #-380]!	; 0xfffffe84
 618:	00007469 	andeq	r7, r0, r9, ror #8
	...
 640:	2fd62a54 	svccs	0x00d62a54
 644:	5f6b6c62 	svcpl	0x006b6c62
 648:	75657571 	strbvc	r7, [r5, #-1393]!	; 0xfffffa8f
 64c:	616d5f65 	cmnvs	sp, r5, ror #30
 650:	725f656b 	subsvc	r6, pc, #448790528	; 0x1ac00000
 654:	65757165 	ldrbvs	r7, [r5, #-357]!	; 0xfffffe9b
 658:	00007473 	andeq	r7, r0, r3, ror r4
	...
 680:	db7305a1 	blle	1cc1d0c <pcmsim_free+0x1cbf3dc>
 684:	74735f5f 	ldrbtvc	r5, [r3], #-3935	; 0xfffff0a1
 688:	5f6b6361 	svcpl	0x006b6361
 68c:	5f6b6863 	svcpl	0x006b6863
 690:	6c696166 	stfvse	f6, [r9], #-408	; 0xfffffe68
	...
 6c0:	13722bb0 	cmnne	r2, #176, 22	; 0x2c000
 6c4:	5f747570 	svcpl	0x00747570
 6c8:	6b736964 	blvs	1cdac60 <pcmsim_free+0x1cd8330>
	...
 700:	f8b63325 			; <UNDEFINED> instruction: 0xf8b63325
 704:	61725f5f 	cmnvs	r2, pc, asr pc
 708:	70735f77 	rsbsvc	r5, r3, r7, ror pc
 70c:	6c5f6e69 	mrrcvs	14, 6, r6, pc, cr9	; <UNPREDICTABLE>
 710:	5f6b636f 	svcpl	0x006b636f
 714:	74696e69 	strbtvc	r6, [r9], #-3689	; 0xfffff197
	...
 740:	3656e041 	ldrbcc	lr, [r6], -r1, asr #32
 744:	6d656d6b 	stclvs	13, cr6, [r5, #-428]!	; 0xfffffe54
 748:	6361635f 	cmnvs	r1, #2080374785	; 0x7c000001
 74c:	615f6568 	cmpvs	pc, r8, ror #10
 750:	636f6c6c 	cmnvs	pc, #108, 24	; 0x6c00
 754:	6172745f 	cmnvs	r2, pc, asr r4
 758:	00006563 	andeq	r6, r0, r3, ror #10
	...
 780:	3a3fab95 	bcc	feb5dc <pcmsim_free+0xfe8cac>
 784:	6574756d 	ldrbvs	r7, [r4, #-1389]!	; 0xfffffa93
 788:	6f6c5f78 	svcvs	0x006c5f78
 78c:	6e5f6b63 	vnmlavs.f64	d22, d15, d19
 790:	65747365 	ldrbvs	r7, [r4, #-869]!	; 0xfffffc9b
 794:	00000064 	andeq	r0, r0, r4, rrx
	...
 7c0:	1e047854 	mcrne	8, 0, r7, cr4, cr4, {2}
 7c4:	6e726177 	mrcvs	1, 3, r6, cr2, cr7, {3}
 7c8:	6f6c735f 	svcvs	0x006c735f
 7cc:	74617077 	strbtvc	r7, [r1], #-119	; 0xffffff89
 7d0:	6d665f68 	stclvs	15, cr5, [r6, #-416]!	; 0xfffffe60
 7d4:	00000074 	andeq	r0, r0, r4, ror r0
	...
 800:	03ef16c7 	mvneq	r1, #208666624	; 0xc700000
 804:	5f746567 	svcpl	0x00746567
 808:	6b736964 	blvs	1cdada0 <pcmsim_free+0x1cd8470>
 80c:	646e615f 	strbtvs	r6, [lr], #-351	; 0xfffffea1
 810:	646f6d5f 	strbtvs	r6, [pc], #-3423	; 818 <____versions+0x818>
 814:	00656c75 	rsbeq	r6, r5, r5, ror ip
	...
 840:	037a0cba 	cmneq	sl, #47616	; 0xba00
 844:	6572666b 	ldrbvs	r6, [r2, #-1643]!	; 0xfffff995
 848:	00000065 	andeq	r0, r0, r5, rrx
	...
 880:	7ec0fff2 	mcrvc	15, 6, pc, cr0, cr2, {7}	; <UNPREDICTABLE>
 884:	6b636f6c 	blvs	18dc63c <pcmsim_free+0x18d9d0c>
 888:	5f706564 	svcpl	0x00706564
 88c:	74696e69 	strbtvc	r6, [r9], #-3689	; 0xfffff197
 890:	70616d5f 	rsbvc	r6, r1, pc, asr sp
	...
 8c0:	efd6cf06 	svc	0x00d6cf06
 8c4:	65615f5f 	strbvs	r5, [r1, #-3935]!	; 0xfffff0a1
 8c8:	5f696261 	svcpl	0x00696261
 8cc:	69776e75 	ldmdbvs	r7!, {r0, r2, r4, r5, r6, r9, sl, fp, sp, lr}^
 8d0:	635f646e 	cmpvs	pc, #1845493760	; 0x6e000000
 8d4:	705f7070 	subsvc	r7, pc, r0, ror r0	; <UNPREDICTABLE>
 8d8:	00003072 	andeq	r3, r0, r2, ror r0
	...
 900:	8f678b07 	svchi	0x00678b07
 904:	74735f5f 	ldrbtvc	r5, [r3], #-3935	; 0xfffff0a1
 908:	5f6b6361 	svcpl	0x006b6361
 90c:	5f6b6863 	svcpl	0x006b6863
 910:	72617567 	rsbvc	r7, r1, #432013312	; 0x19c00000
 914:	00000064 	andeq	r0, r0, r4, rrx
	...
 940:	b404edbb 	strlt	lr, [r4], #-3515	; 0xfffff245
 944:	69766564 	ldmdbvs	r6!, {r2, r5, r6, r8, sl, sp, lr}^
 948:	615f6563 	cmpvs	pc, r3, ror #10
 94c:	645f6464 	ldrbvs	r6, [pc], #-1124	; 954 <____versions+0x954>
 950:	006b7369 	rsbeq	r7, fp, r9, ror #6
	...
 980:	f420e87f 	vld2.16	{d14-d15}, [r0 :256]
 984:	73756c66 	cmnvc	r5, #26112	; 0x6600
 988:	63645f68 	cmnvs	r4, #104, 30	; 0x1a0
 98c:	65686361 	strbvs	r6, [r8, #-865]!	; 0xfffffc9f
 990:	6761705f 			; <UNDEFINED> instruction: 0x6761705f
 994:	00000065 	andeq	r0, r0, r5, rrx
	...

Disassembly of section .plt:

000009c0 <.plt>:
	...

Disassembly of section .init.plt:

000009c1 <.init.plt>:
	...
